
kernel.elf:     file format elf32-littlearm


Disassembly of section .text:

00008000 <start>:
    8000:	e3a00013 	mov	r0, #19
    8004:	e129f000 	msr	CPSR_fc, r0
    8008:	e59fd020 	ldr	sp, [pc, #32]	; 8030 <stop+0x4>
    800c:	e3a00000 	mov	r0, #0
    8010:	e59f101c 	ldr	r1, [pc, #28]	; 8034 <stop+0x8>
    8014:	e59f201c 	ldr	r2, [pc, #28]	; 8038 <stop+0xc>

00008018 <loop>:
    8018:	e1510002 	cmp	r1, r2
    801c:	aa000001 	bge	8028 <cont>
    8020:	e4810004 	str	r0, [r1], #4
    8024:	eafffffb 	b	8018 <loop>

00008028 <cont>:
    8028:	eb0000d9 	bl	8394 <main>

0000802c <stop>:
    802c:	eafffffe 	b	802c <stop>
    8030:	0000c9e0 	andeq	ip, r0, r0, ror #19
    8034:	0000b9a8 	andeq	fp, r0, r8, lsr #19
    8038:	0000b9e0 	andeq	fp, r0, r0, ror #19

0000803c <uart_init>:
    803c:	e52db004 	push	{fp}		; (str fp, [sp, #-4]!)
    8040:	e28db000 	add	fp, sp, #0
    8044:	e59f2044 	ldr	r2, [pc, #68]	; 8090 <uart_init+0x54>
    8048:	e3a030d0 	mov	r3, #208	; 0xd0
    804c:	e5823000 	str	r3, [r2]
    8050:	e59f203c 	ldr	r2, [pc, #60]	; 8094 <uart_init+0x58>
    8054:	e5823000 	str	r3, [r2]
    8058:	e59f2030 	ldr	r2, [pc, #48]	; 8090 <uart_init+0x54>
    805c:	e3a0302b 	mov	r3, #43	; 0x2b
    8060:	e5823000 	str	r3, [r2]
    8064:	e59f202c 	ldr	r2, [pc, #44]	; 8098 <uart_init+0x5c>
    8068:	e5823000 	str	r3, [r2]
    806c:	e59f2028 	ldr	r2, [pc, #40]	; 809c <uart_init+0x60>
    8070:	e3a03008 	mov	r3, #8
    8074:	e5823000 	str	r3, [r2]
    8078:	e59f2020 	ldr	r2, [pc, #32]	; 80a0 <uart_init+0x64>
    807c:	e5823000 	str	r3, [r2]
    8080:	e1a00000 	nop			; (mov r0, r0)
    8084:	e28bd000 	add	sp, fp, #0
    8088:	e49db004 	pop	{fp}		; (ldr fp, [sp], #4)
    808c:	e1a0f00e 	mov	pc, lr
    8090:	03ffe014 	mvnseq	lr, #20
    8094:	03ffd014 	mvnseq	sp, #20
    8098:	03ffd000 	mvnseq	sp, #0
    809c:	03ffe004 	mvnseq	lr, #4
    80a0:	03ffd004 	mvnseq	sp, #4

000080a4 <uart0_send>:
    80a4:	e52db004 	push	{fp}		; (str fp, [sp, #-4]!)
    80a8:	e28db000 	add	fp, sp, #0
    80ac:	e24dd00c 	sub	sp, sp, #12
    80b0:	e1a03000 	mov	r3, r0
    80b4:	e54b3005 	strb	r3, [fp, #-5]
    80b8:	e1a00000 	nop			; (mov r0, r0)
    80bc:	e59f3028 	ldr	r3, [pc, #40]	; 80ec <uart0_send+0x48>
    80c0:	e5933000 	ldr	r3, [r3]
    80c4:	e2033040 	and	r3, r3, #64	; 0x40
    80c8:	e3530000 	cmp	r3, #0
    80cc:	0afffffa 	beq	80bc <uart0_send+0x18>
    80d0:	e59f2018 	ldr	r2, [pc, #24]	; 80f0 <uart0_send+0x4c>
    80d4:	e55b3005 	ldrb	r3, [fp, #-5]
    80d8:	e5823000 	str	r3, [r2]
    80dc:	e1a00000 	nop			; (mov r0, r0)
    80e0:	e28bd000 	add	sp, fp, #0
    80e4:	e49db004 	pop	{fp}		; (ldr fp, [sp], #4)
    80e8:	e1a0f00e 	mov	pc, lr
    80ec:	03ffd008 	mvnseq	sp, #8
    80f0:	03ffd00c 	mvnseq	sp, #12

000080f4 <uart1_send>:
    80f4:	e52db004 	push	{fp}		; (str fp, [sp, #-4]!)
    80f8:	e28db000 	add	fp, sp, #0
    80fc:	e24dd00c 	sub	sp, sp, #12
    8100:	e1a03000 	mov	r3, r0
    8104:	e54b3005 	strb	r3, [fp, #-5]
    8108:	e1a00000 	nop			; (mov r0, r0)
    810c:	e59f3028 	ldr	r3, [pc, #40]	; 813c <uart1_send+0x48>
    8110:	e5933000 	ldr	r3, [r3]
    8114:	e2033040 	and	r3, r3, #64	; 0x40
    8118:	e3530000 	cmp	r3, #0
    811c:	0afffffa 	beq	810c <uart1_send+0x18>
    8120:	e59f2018 	ldr	r2, [pc, #24]	; 8140 <uart1_send+0x4c>
    8124:	e55b3005 	ldrb	r3, [fp, #-5]
    8128:	e5823000 	str	r3, [r2]
    812c:	e1a00000 	nop			; (mov r0, r0)
    8130:	e28bd000 	add	sp, fp, #0
    8134:	e49db004 	pop	{fp}		; (ldr fp, [sp], #4)
    8138:	e1a0f00e 	mov	pc, lr
    813c:	03ffe008 	mvnseq	lr, #8
    8140:	03ffe00c 	mvnseq	lr, #12

00008144 <_fstat>:
    8144:	e52db004 	push	{fp}		; (str fp, [sp, #-4]!)
    8148:	e28db000 	add	fp, sp, #0
    814c:	e24dd00c 	sub	sp, sp, #12
    8150:	e50b0008 	str	r0, [fp, #-8]
    8154:	e50b100c 	str	r1, [fp, #-12]
    8158:	e51b300c 	ldr	r3, [fp, #-12]
    815c:	e3a02a02 	mov	r2, #8192	; 0x2000
    8160:	e5832004 	str	r2, [r3, #4]
    8164:	e3a03000 	mov	r3, #0
    8168:	e1a00003 	mov	r0, r3
    816c:	e28bd000 	add	sp, fp, #0
    8170:	e49db004 	pop	{fp}		; (ldr fp, [sp], #4)
    8174:	e1a0f00e 	mov	pc, lr

00008178 <_lseek>:
    8178:	e52db004 	push	{fp}		; (str fp, [sp, #-4]!)
    817c:	e28db000 	add	fp, sp, #0
    8180:	e24dd014 	sub	sp, sp, #20
    8184:	e50b0008 	str	r0, [fp, #-8]
    8188:	e50b100c 	str	r1, [fp, #-12]
    818c:	e50b2010 	str	r2, [fp, #-16]
    8190:	e3a03000 	mov	r3, #0
    8194:	e1a00003 	mov	r0, r3
    8198:	e28bd000 	add	sp, fp, #0
    819c:	e49db004 	pop	{fp}		; (ldr fp, [sp], #4)
    81a0:	e1a0f00e 	mov	pc, lr

000081a4 <_close>:
    81a4:	e52db004 	push	{fp}		; (str fp, [sp, #-4]!)
    81a8:	e28db000 	add	fp, sp, #0
    81ac:	e24dd00c 	sub	sp, sp, #12
    81b0:	e50b0008 	str	r0, [fp, #-8]
    81b4:	e3e03000 	mvn	r3, #0
    81b8:	e1a00003 	mov	r0, r3
    81bc:	e28bd000 	add	sp, fp, #0
    81c0:	e49db004 	pop	{fp}		; (ldr fp, [sp], #4)
    81c4:	e1a0f00e 	mov	pc, lr

000081c8 <_write>:
    81c8:	e92d4800 	push	{fp, lr}
    81cc:	e28db004 	add	fp, sp, #4
    81d0:	e24dd018 	sub	sp, sp, #24
    81d4:	e50b0010 	str	r0, [fp, #-16]
    81d8:	e50b1014 	str	r1, [fp, #-20]	; 0xffffffec
    81dc:	e50b2018 	str	r2, [fp, #-24]	; 0xffffffe8
    81e0:	e51b3010 	ldr	r3, [fp, #-16]
    81e4:	e3530001 	cmp	r3, #1
    81e8:	0a000003 	beq	81fc <_write+0x34>
    81ec:	e51b3010 	ldr	r3, [fp, #-16]
    81f0:	e3530002 	cmp	r3, #2
    81f4:	0a000011 	beq	8240 <_write+0x78>
    81f8:	ea000021 	b	8284 <_write+0xbc>
    81fc:	e3a03000 	mov	r3, #0
    8200:	e50b3008 	str	r3, [fp, #-8]
    8204:	ea000008 	b	822c <_write+0x64>
    8208:	e51b3008 	ldr	r3, [fp, #-8]
    820c:	e51b2014 	ldr	r2, [fp, #-20]	; 0xffffffec
    8210:	e0823003 	add	r3, r2, r3
    8214:	e5d33000 	ldrb	r3, [r3]
    8218:	e1a00003 	mov	r0, r3
    821c:	ebffffa0 	bl	80a4 <uart0_send>
    8220:	e51b3008 	ldr	r3, [fp, #-8]
    8224:	e2833001 	add	r3, r3, #1
    8228:	e50b3008 	str	r3, [fp, #-8]
    822c:	e51b2008 	ldr	r2, [fp, #-8]
    8230:	e51b3018 	ldr	r3, [fp, #-24]	; 0xffffffe8
    8234:	e1520003 	cmp	r2, r3
    8238:	bafffff2 	blt	8208 <_write+0x40>
    823c:	ea000012 	b	828c <_write+0xc4>
    8240:	e3a03000 	mov	r3, #0
    8244:	e50b300c 	str	r3, [fp, #-12]
    8248:	ea000008 	b	8270 <_write+0xa8>
    824c:	e51b300c 	ldr	r3, [fp, #-12]
    8250:	e51b2014 	ldr	r2, [fp, #-20]	; 0xffffffec
    8254:	e0823003 	add	r3, r2, r3
    8258:	e5d33000 	ldrb	r3, [r3]
    825c:	e1a00003 	mov	r0, r3
    8260:	ebffffa3 	bl	80f4 <uart1_send>
    8264:	e51b300c 	ldr	r3, [fp, #-12]
    8268:	e2833001 	add	r3, r3, #1
    826c:	e50b300c 	str	r3, [fp, #-12]
    8270:	e51b200c 	ldr	r2, [fp, #-12]
    8274:	e51b3018 	ldr	r3, [fp, #-24]	; 0xffffffe8
    8278:	e1520003 	cmp	r2, r3
    827c:	bafffff2 	blt	824c <_write+0x84>
    8280:	ea000001 	b	828c <_write+0xc4>
    8284:	e3e03000 	mvn	r3, #0
    8288:	ea000000 	b	8290 <_write+0xc8>
    828c:	e51b3018 	ldr	r3, [fp, #-24]	; 0xffffffe8
    8290:	e1a00003 	mov	r0, r3
    8294:	e24bd004 	sub	sp, fp, #4
    8298:	e8bd8800 	pop	{fp, pc}

0000829c <_read>:
    829c:	e52db004 	push	{fp}		; (str fp, [sp, #-4]!)
    82a0:	e28db000 	add	fp, sp, #0
    82a4:	e24dd014 	sub	sp, sp, #20
    82a8:	e50b0008 	str	r0, [fp, #-8]
    82ac:	e50b100c 	str	r1, [fp, #-12]
    82b0:	e50b2010 	str	r2, [fp, #-16]
    82b4:	e3a03000 	mov	r3, #0
    82b8:	e1a00003 	mov	r0, r3
    82bc:	e28bd000 	add	sp, fp, #0
    82c0:	e49db004 	pop	{fp}		; (ldr fp, [sp], #4)
    82c4:	e1a0f00e 	mov	pc, lr

000082c8 <_sbrk>:
    82c8:	e52db004 	push	{fp}		; (str fp, [sp, #-4]!)
    82cc:	e28db000 	add	fp, sp, #0
    82d0:	e24dd014 	sub	sp, sp, #20
    82d4:	e50b0010 	str	r0, [fp, #-16]
    82d8:	e59f3034 	ldr	r3, [pc, #52]	; 8314 <_sbrk+0x4c>
    82dc:	e5933000 	ldr	r3, [r3]
    82e0:	e50b3008 	str	r3, [fp, #-8]
    82e4:	e59f3028 	ldr	r3, [pc, #40]	; 8314 <_sbrk+0x4c>
    82e8:	e5932000 	ldr	r2, [r3]
    82ec:	e51b3010 	ldr	r3, [fp, #-16]
    82f0:	e0823003 	add	r3, r2, r3
    82f4:	e59f2018 	ldr	r2, [pc, #24]	; 8314 <_sbrk+0x4c>
    82f8:	e5823000 	str	r3, [r2]
    82fc:	e59f3010 	ldr	r3, [pc, #16]	; 8314 <_sbrk+0x4c>
    8300:	e5933000 	ldr	r3, [r3]
    8304:	e1a00003 	mov	r0, r3
    8308:	e28bd000 	add	sp, fp, #0
    830c:	e49db004 	pop	{fp}		; (ldr fp, [sp], #4)
    8310:	e1a0f00e 	mov	pc, lr
    8314:	0000b160 	andeq	fp, r0, r0, ror #2

00008318 <_isatty>:
    8318:	e52db004 	push	{fp}		; (str fp, [sp, #-4]!)
    831c:	e28db000 	add	fp, sp, #0
    8320:	e24dd00c 	sub	sp, sp, #12
    8324:	e50b0008 	str	r0, [fp, #-8]
    8328:	e3a03001 	mov	r3, #1
    832c:	e1a00003 	mov	r0, r3
    8330:	e28bd000 	add	sp, fp, #0
    8334:	e49db004 	pop	{fp}		; (ldr fp, [sp], #4)
    8338:	e1a0f00e 	mov	pc, lr

0000833c <_exit>:
    833c:	e52db004 	push	{fp}		; (str fp, [sp, #-4]!)
    8340:	e28db000 	add	fp, sp, #0
    8344:	e24dd00c 	sub	sp, sp, #12
    8348:	e50b0008 	str	r0, [fp, #-8]
    834c:	eafffffe 	b	834c <_exit+0x10>

00008350 <_kill>:
    8350:	e52db004 	push	{fp}		; (str fp, [sp, #-4]!)
    8354:	e28db000 	add	fp, sp, #0
    8358:	e24dd00c 	sub	sp, sp, #12
    835c:	e50b0008 	str	r0, [fp, #-8]
    8360:	e50b100c 	str	r1, [fp, #-12]
    8364:	e3a03001 	mov	r3, #1
    8368:	e1a00003 	mov	r0, r3
    836c:	e28bd000 	add	sp, fp, #0
    8370:	e49db004 	pop	{fp}		; (ldr fp, [sp], #4)
    8374:	e1a0f00e 	mov	pc, lr

00008378 <_getpid>:
    8378:	e52db004 	push	{fp}		; (str fp, [sp, #-4]!)
    837c:	e28db000 	add	fp, sp, #0
    8380:	e3a03001 	mov	r3, #1
    8384:	e1a00003 	mov	r0, r3
    8388:	e28bd000 	add	sp, fp, #0
    838c:	e49db004 	pop	{fp}		; (ldr fp, [sp], #4)
    8390:	e1a0f00e 	mov	pc, lr

00008394 <main>:
    8394:	e92d4800 	push	{fp, lr}
    8398:	e28db004 	add	fp, sp, #4
    839c:	ebffff26 	bl	803c <uart_init>
    83a0:	e59f000c 	ldr	r0, [pc, #12]	; 83b4 <main+0x20>
    83a4:	eb00002e 	bl	8464 <puts>
    83a8:	e3a03000 	mov	r3, #0
    83ac:	e1a00003 	mov	r0, r3
    83b0:	e8bd8800 	pop	{fp, pc}
    83b4:	0000b144 	andeq	fp, r0, r4, asr #2

000083b8 <_puts_r>:
    83b8:	e92d4030 	push	{r4, r5, lr}
    83bc:	e1a04000 	mov	r4, r0
    83c0:	e24dd024 	sub	sp, sp, #36	; 0x24
    83c4:	e1a00001 	mov	r0, r1
    83c8:	e1a05001 	mov	r5, r1
    83cc:	eb000029 	bl	8478 <strlen>
    83d0:	e3a02001 	mov	r2, #1
    83d4:	e3a03002 	mov	r3, #2
    83d8:	e59f1080 	ldr	r1, [pc, #128]	; 8460 <_puts_r+0xa8>
    83dc:	e58d1018 	str	r1, [sp, #24]
    83e0:	e5941038 	ldr	r1, [r4, #56]	; 0x38
    83e4:	e58d3008 	str	r3, [sp, #8]
    83e8:	e3510000 	cmp	r1, #0
    83ec:	e0803002 	add	r3, r0, r2
    83f0:	e28d1010 	add	r1, sp, #16
    83f4:	e58d5010 	str	r5, [sp, #16]
    83f8:	e58d1004 	str	r1, [sp, #4]
    83fc:	e5945008 	ldr	r5, [r4, #8]
    8400:	e58d201c 	str	r2, [sp, #28]
    8404:	e58d0014 	str	r0, [sp, #20]
    8408:	e58d300c 	str	r3, [sp, #12]
    840c:	0a000010 	beq	8454 <_puts_r+0x9c>
    8410:	e1d530fc 	ldrsh	r3, [r5, #12]
    8414:	e3130a02 	tst	r3, #8192	; 0x2000
    8418:	05952064 	ldreq	r2, [r5, #100]	; 0x64
    841c:	03833a02 	orreq	r3, r3, #8192	; 0x2000
    8420:	03c22a02 	biceq	r2, r2, #8192	; 0x2000
    8424:	05852064 	streq	r2, [r5, #100]	; 0x64
    8428:	01c530bc 	strheq	r3, [r5, #12]
    842c:	e1a01005 	mov	r1, r5
    8430:	e1a00004 	mov	r0, r4
    8434:	e28d2004 	add	r2, sp, #4
    8438:	eb0000fe 	bl	8838 <__sfvwrite_r>
    843c:	e3500000 	cmp	r0, #0
    8440:	13e00000 	mvnne	r0, #0
    8444:	03a0000a 	moveq	r0, #10
    8448:	e28dd024 	add	sp, sp, #36	; 0x24
    844c:	e8bd4030 	pop	{r4, r5, lr}
    8450:	e12fff1e 	bx	lr
    8454:	e1a00004 	mov	r0, r4
    8458:	eb0000dc 	bl	87d0 <__sinit>
    845c:	eaffffeb 	b	8410 <_puts_r+0x58>
    8460:	0000b158 	andeq	fp, r0, r8, asr r1

00008464 <puts>:
    8464:	e59f3008 	ldr	r3, [pc, #8]	; 8474 <puts+0x10>
    8468:	e1a01000 	mov	r1, r0
    846c:	e5930000 	ldr	r0, [r3]
    8470:	eaffffd0 	b	83b8 <_puts_r>
    8474:	0000b168 	andeq	fp, r0, r8, ror #2

00008478 <strlen>:
    8478:	e3c01003 	bic	r1, r0, #3
    847c:	e2100003 	ands	r0, r0, #3
    8480:	e2600000 	rsb	r0, r0, #0
    8484:	e4913004 	ldr	r3, [r1], #4
    8488:	e280c004 	add	ip, r0, #4
    848c:	e1a0c18c 	lsl	ip, ip, #3
    8490:	e3e02000 	mvn	r2, #0
    8494:	11833c32 	orrne	r3, r3, r2, lsr ip
    8498:	e3a0c001 	mov	ip, #1
    849c:	e18cc40c 	orr	ip, ip, ip, lsl #8
    84a0:	e18cc80c 	orr	ip, ip, ip, lsl #16
    84a4:	e043200c 	sub	r2, r3, ip
    84a8:	e1c22003 	bic	r2, r2, r3
    84ac:	e012238c 	ands	r2, r2, ip, lsl #7
    84b0:	04913004 	ldreq	r3, [r1], #4
    84b4:	02800004 	addeq	r0, r0, #4
    84b8:	0afffff9 	beq	84a4 <strlen+0x2c>
    84bc:	e31300ff 	tst	r3, #255	; 0xff
    84c0:	12800001 	addne	r0, r0, #1
    84c4:	13130cff 	tstne	r3, #65280	; 0xff00
    84c8:	12800001 	addne	r0, r0, #1
    84cc:	131308ff 	tstne	r3, #16711680	; 0xff0000
    84d0:	12800001 	addne	r0, r0, #1
    84d4:	e12fff1e 	bx	lr

000084d8 <__fp_lock>:
    84d8:	e3a00000 	mov	r0, #0
    84dc:	e12fff1e 	bx	lr

000084e0 <_cleanup_r>:
    84e0:	e92d4010 	push	{r4, lr}
    84e4:	e59f1008 	ldr	r1, [pc, #8]	; 84f4 <_cleanup_r+0x14>
    84e8:	eb00021f 	bl	8d6c <_fwalk_reent>
    84ec:	e8bd4010 	pop	{r4, lr}
    84f0:	e12fff1e 	bx	lr
    84f4:	0000a3b4 			; <UNDEFINED> instruction: 0x0000a3b4

000084f8 <__fp_unlock>:
    84f8:	e3a00000 	mov	r0, #0
    84fc:	e12fff1e 	bx	lr

00008500 <__sinit.part.0>:
    8500:	e92d47f0 	push	{r4, r5, r6, r7, r8, r9, sl, lr}
    8504:	e3a0c003 	mov	ip, #3
    8508:	e3a04000 	mov	r4, #0
    850c:	e1a0a000 	mov	sl, r0
    8510:	e3a03004 	mov	r3, #4
    8514:	e59fe110 	ldr	lr, [pc, #272]	; 862c <__sinit.part.0+0x12c>
    8518:	e5905004 	ldr	r5, [r0, #4]
    851c:	e580e03c 	str	lr, [r0, #60]	; 0x3c
    8520:	e580c2e4 	str	ip, [r0, #740]	; 0x2e4
    8524:	e58042e0 	str	r4, [r0, #736]	; 0x2e0
    8528:	e59f9100 	ldr	r9, [pc, #256]	; 8630 <__sinit.part.0+0x130>
    852c:	e59f8100 	ldr	r8, [pc, #256]	; 8634 <__sinit.part.0+0x134>
    8530:	e59f7100 	ldr	r7, [pc, #256]	; 8638 <__sinit.part.0+0x138>
    8534:	e59f6100 	ldr	r6, [pc, #256]	; 863c <__sinit.part.0+0x13c>
    8538:	e2800fbb 	add	r0, r0, #748	; 0x2ec
    853c:	e58a02e8 	str	r0, [sl, #744]	; 0x2e8
    8540:	e1a01004 	mov	r1, r4
    8544:	e585300c 	str	r3, [r5, #12]
    8548:	e5854064 	str	r4, [r5, #100]	; 0x64
    854c:	e5854000 	str	r4, [r5]
    8550:	e5854004 	str	r4, [r5, #4]
    8554:	e5854008 	str	r4, [r5, #8]
    8558:	e5854010 	str	r4, [r5, #16]
    855c:	e5854014 	str	r4, [r5, #20]
    8560:	e5854018 	str	r4, [r5, #24]
    8564:	e3a02008 	mov	r2, #8
    8568:	e285005c 	add	r0, r5, #92	; 0x5c
    856c:	eb0004f2 	bl	993c <memset>
    8570:	e5859020 	str	r9, [r5, #32]
    8574:	e5858024 	str	r8, [r5, #36]	; 0x24
    8578:	e5857028 	str	r7, [r5, #40]	; 0x28
    857c:	e585602c 	str	r6, [r5, #44]	; 0x2c
    8580:	e59f30b8 	ldr	r3, [pc, #184]	; 8640 <__sinit.part.0+0x140>
    8584:	e585501c 	str	r5, [r5, #28]
    8588:	e59a5008 	ldr	r5, [sl, #8]
    858c:	e1a01004 	mov	r1, r4
    8590:	e5854064 	str	r4, [r5, #100]	; 0x64
    8594:	e5854000 	str	r4, [r5]
    8598:	e5854004 	str	r4, [r5, #4]
    859c:	e5854008 	str	r4, [r5, #8]
    85a0:	e5854010 	str	r4, [r5, #16]
    85a4:	e5854014 	str	r4, [r5, #20]
    85a8:	e5854018 	str	r4, [r5, #24]
    85ac:	e585300c 	str	r3, [r5, #12]
    85b0:	e3a02008 	mov	r2, #8
    85b4:	e285005c 	add	r0, r5, #92	; 0x5c
    85b8:	eb0004df 	bl	993c <memset>
    85bc:	e5859020 	str	r9, [r5, #32]
    85c0:	e5858024 	str	r8, [r5, #36]	; 0x24
    85c4:	e5857028 	str	r7, [r5, #40]	; 0x28
    85c8:	e585602c 	str	r6, [r5, #44]	; 0x2c
    85cc:	e59f3070 	ldr	r3, [pc, #112]	; 8644 <__sinit.part.0+0x144>
    85d0:	e585501c 	str	r5, [r5, #28]
    85d4:	e59a500c 	ldr	r5, [sl, #12]
    85d8:	e1a01004 	mov	r1, r4
    85dc:	e585300c 	str	r3, [r5, #12]
    85e0:	e5854064 	str	r4, [r5, #100]	; 0x64
    85e4:	e5854000 	str	r4, [r5]
    85e8:	e5854004 	str	r4, [r5, #4]
    85ec:	e5854008 	str	r4, [r5, #8]
    85f0:	e5854010 	str	r4, [r5, #16]
    85f4:	e5854014 	str	r4, [r5, #20]
    85f8:	e5854018 	str	r4, [r5, #24]
    85fc:	e285005c 	add	r0, r5, #92	; 0x5c
    8600:	e3a02008 	mov	r2, #8
    8604:	eb0004cc 	bl	993c <memset>
    8608:	e3a03001 	mov	r3, #1
    860c:	e5859020 	str	r9, [r5, #32]
    8610:	e585501c 	str	r5, [r5, #28]
    8614:	e5858024 	str	r8, [r5, #36]	; 0x24
    8618:	e5857028 	str	r7, [r5, #40]	; 0x28
    861c:	e585602c 	str	r6, [r5, #44]	; 0x2c
    8620:	e58a3038 	str	r3, [sl, #56]	; 0x38
    8624:	e8bd47f0 	pop	{r4, r5, r6, r7, r8, r9, sl, lr}
    8628:	e12fff1e 	bx	lr
    862c:	000084e0 	andeq	r8, r0, r0, ror #9
    8630:	0000a038 	andeq	sl, r0, r8, lsr r0
    8634:	0000a074 	andeq	sl, r0, r4, ror r0
    8638:	0000a0d0 	ldrdeq	sl, [r0], -r0
    863c:	0000a100 	andeq	sl, r0, r0, lsl #2
    8640:	00010009 	andeq	r0, r1, r9
    8644:	00020012 	andeq	r0, r2, r2, lsl r0

00008648 <__sfmoreglue>:
    8648:	e2412001 	sub	r2, r1, #1
    864c:	e92d4070 	push	{r4, r5, r6, lr}
    8650:	e0824082 	add	r4, r2, r2, lsl #1
    8654:	e0822104 	add	r2, r2, r4, lsl #2
    8658:	e1a04182 	lsl	r4, r2, #3
    865c:	e1a06001 	mov	r6, r1
    8660:	e2841074 	add	r1, r4, #116	; 0x74
    8664:	eb0001de 	bl	8de4 <_malloc_r>
    8668:	e2505000 	subs	r5, r0, #0
    866c:	0a000006 	beq	868c <__sfmoreglue+0x44>
    8670:	e3a01000 	mov	r1, #0
    8674:	e285000c 	add	r0, r5, #12
    8678:	e5856004 	str	r6, [r5, #4]
    867c:	e5850008 	str	r0, [r5, #8]
    8680:	e5851000 	str	r1, [r5]
    8684:	e2842068 	add	r2, r4, #104	; 0x68
    8688:	eb0004ab 	bl	993c <memset>
    868c:	e1a00005 	mov	r0, r5
    8690:	e8bd4070 	pop	{r4, r5, r6, lr}
    8694:	e12fff1e 	bx	lr

00008698 <__sfp>:
    8698:	e59f3104 	ldr	r3, [pc, #260]	; 87a4 <__sfp+0x10c>
    869c:	e92d41f0 	push	{r4, r5, r6, r7, r8, lr}
    86a0:	e5938000 	ldr	r8, [r3]
    86a4:	e5983038 	ldr	r3, [r8, #56]	; 0x38
    86a8:	e3530000 	cmp	r3, #0
    86ac:	e1a06000 	mov	r6, r0
    86b0:	0a000025 	beq	874c <__sfp+0xb4>
    86b4:	e3a07004 	mov	r7, #4
    86b8:	e2888e2e 	add	r8, r8, #736	; 0x2e0
    86bc:	e9980018 	ldmib	r8, {r3, r4}
    86c0:	e2533001 	subs	r3, r3, #1
    86c4:	5a000003 	bpl	86d8 <__sfp+0x40>
    86c8:	ea00001a 	b	8738 <__sfp+0xa0>
    86cc:	e3730001 	cmn	r3, #1
    86d0:	e2844068 	add	r4, r4, #104	; 0x68
    86d4:	0a000017 	beq	8738 <__sfp+0xa0>
    86d8:	e1d450fc 	ldrsh	r5, [r4, #12]
    86dc:	e3550000 	cmp	r5, #0
    86e0:	e2433001 	sub	r3, r3, #1
    86e4:	1afffff8 	bne	86cc <__sfp+0x34>
    86e8:	e59f30b8 	ldr	r3, [pc, #184]	; 87a8 <__sfp+0x110>
    86ec:	e3a02008 	mov	r2, #8
    86f0:	e1a01005 	mov	r1, r5
    86f4:	e5845064 	str	r5, [r4, #100]	; 0x64
    86f8:	e5845000 	str	r5, [r4]
    86fc:	e5845004 	str	r5, [r4, #4]
    8700:	e5845008 	str	r5, [r4, #8]
    8704:	e584300c 	str	r3, [r4, #12]
    8708:	e5845010 	str	r5, [r4, #16]
    870c:	e5845014 	str	r5, [r4, #20]
    8710:	e5845018 	str	r5, [r4, #24]
    8714:	e284005c 	add	r0, r4, #92	; 0x5c
    8718:	eb000487 	bl	993c <memset>
    871c:	e5845030 	str	r5, [r4, #48]	; 0x30
    8720:	e5845034 	str	r5, [r4, #52]	; 0x34
    8724:	e5845044 	str	r5, [r4, #68]	; 0x44
    8728:	e5845048 	str	r5, [r4, #72]	; 0x48
    872c:	e1a00004 	mov	r0, r4
    8730:	e8bd41f0 	pop	{r4, r5, r6, r7, r8, lr}
    8734:	e12fff1e 	bx	lr
    8738:	e5985000 	ldr	r5, [r8]
    873c:	e3550000 	cmp	r5, #0
    8740:	0a000004 	beq	8758 <__sfp+0xc0>
    8744:	e1a08005 	mov	r8, r5
    8748:	eaffffdb 	b	86bc <__sfp+0x24>
    874c:	e1a00008 	mov	r0, r8
    8750:	ebffff6a 	bl	8500 <__sinit.part.0>
    8754:	eaffffd6 	b	86b4 <__sfp+0x1c>
    8758:	e3a01f6b 	mov	r1, #428	; 0x1ac
    875c:	e1a00006 	mov	r0, r6
    8760:	eb00019f 	bl	8de4 <_malloc_r>
    8764:	e2504000 	subs	r4, r0, #0
    8768:	0a000009 	beq	8794 <__sfp+0xfc>
    876c:	e284000c 	add	r0, r4, #12
    8770:	e1a01005 	mov	r1, r5
    8774:	e5845000 	str	r5, [r4]
    8778:	e3a02e1a 	mov	r2, #416	; 0x1a0
    877c:	e5847004 	str	r7, [r4, #4]
    8780:	e5840008 	str	r0, [r4, #8]
    8784:	eb00046c 	bl	993c <memset>
    8788:	e1a05004 	mov	r5, r4
    878c:	e5884000 	str	r4, [r8]
    8790:	eaffffeb 	b	8744 <__sfp+0xac>
    8794:	e3a0300c 	mov	r3, #12
    8798:	e5884000 	str	r4, [r8]
    879c:	e5863000 	str	r3, [r6]
    87a0:	eaffffe1 	b	872c <__sfp+0x94>
    87a4:	0000b154 	andeq	fp, r0, r4, asr r1
    87a8:	ffff0001 			; <UNDEFINED> instruction: 0xffff0001

000087ac <_cleanup>:
    87ac:	e92d4010 	push	{r4, lr}
    87b0:	e59f3010 	ldr	r3, [pc, #16]	; 87c8 <_cleanup+0x1c>
    87b4:	e59f1010 	ldr	r1, [pc, #16]	; 87cc <_cleanup+0x20>
    87b8:	e5930000 	ldr	r0, [r3]
    87bc:	eb00016a 	bl	8d6c <_fwalk_reent>
    87c0:	e8bd4010 	pop	{r4, lr}
    87c4:	e12fff1e 	bx	lr
    87c8:	0000b154 	andeq	fp, r0, r4, asr r1
    87cc:	0000a3b4 			; <UNDEFINED> instruction: 0x0000a3b4

000087d0 <__sinit>:
    87d0:	e5903038 	ldr	r3, [r0, #56]	; 0x38
    87d4:	e3530000 	cmp	r3, #0
    87d8:	112fff1e 	bxne	lr
    87dc:	eaffff47 	b	8500 <__sinit.part.0>

000087e0 <__sfp_lock_acquire>:
    87e0:	e12fff1e 	bx	lr

000087e4 <__sfp_lock_release>:
    87e4:	e12fff1e 	bx	lr

000087e8 <__sinit_lock_acquire>:
    87e8:	e12fff1e 	bx	lr

000087ec <__sinit_lock_release>:
    87ec:	e12fff1e 	bx	lr

000087f0 <__fp_lock_all>:
    87f0:	e92d4010 	push	{r4, lr}
    87f4:	e59f3010 	ldr	r3, [pc, #16]	; 880c <__fp_lock_all+0x1c>
    87f8:	e59f1010 	ldr	r1, [pc, #16]	; 8810 <__fp_lock_all+0x20>
    87fc:	e5930000 	ldr	r0, [r3]
    8800:	eb00013d 	bl	8cfc <_fwalk>
    8804:	e8bd4010 	pop	{r4, lr}
    8808:	e12fff1e 	bx	lr
    880c:	0000b168 	andeq	fp, r0, r8, ror #2
    8810:	000084d8 	ldrdeq	r8, [r0], -r8	; <UNPREDICTABLE>

00008814 <__fp_unlock_all>:
    8814:	e92d4010 	push	{r4, lr}
    8818:	e59f3010 	ldr	r3, [pc, #16]	; 8830 <__fp_unlock_all+0x1c>
    881c:	e59f1010 	ldr	r1, [pc, #16]	; 8834 <__fp_unlock_all+0x20>
    8820:	e5930000 	ldr	r0, [r3]
    8824:	eb000134 	bl	8cfc <_fwalk>
    8828:	e8bd4010 	pop	{r4, lr}
    882c:	e12fff1e 	bx	lr
    8830:	0000b168 	andeq	fp, r0, r8, ror #2
    8834:	000084f8 	strdeq	r8, [r0], -r8	; <UNPREDICTABLE>

00008838 <__sfvwrite_r>:
    8838:	e5923008 	ldr	r3, [r2, #8]
    883c:	e3530000 	cmp	r3, #0
    8840:	0a000092 	beq	8a90 <__sfvwrite_r+0x258>
    8844:	e92d4ff0 	push	{r4, r5, r6, r7, r8, r9, sl, fp, lr}
    8848:	e1d130fc 	ldrsh	r3, [r1, #12]
    884c:	e1a03803 	lsl	r3, r3, #16
    8850:	e3130702 	tst	r3, #524288	; 0x80000
    8854:	e1a07002 	mov	r7, r2
    8858:	e1a09000 	mov	r9, r0
    885c:	e1a04001 	mov	r4, r1
    8860:	e24dd00c 	sub	sp, sp, #12
    8864:	e1a08823 	lsr	r8, r3, #16
    8868:	0a000020 	beq	88f0 <__sfvwrite_r+0xb8>
    886c:	e5912010 	ldr	r2, [r1, #16]
    8870:	e3520000 	cmp	r2, #0
    8874:	0a00001d 	beq	88f0 <__sfvwrite_r+0xb8>
    8878:	e218a002 	ands	sl, r8, #2
    887c:	e5976000 	ldr	r6, [r7]
    8880:	0a000025 	beq	891c <__sfvwrite_r+0xe4>
    8884:	e3a0a000 	mov	sl, #0
    8888:	e1a0500a 	mov	r5, sl
    888c:	e59f8464 	ldr	r8, [pc, #1124]	; 8cf8 <__sfvwrite_r+0x4c0>
    8890:	e3550000 	cmp	r5, #0
    8894:	0a00006d 	beq	8a50 <__sfvwrite_r+0x218>
    8898:	e1550008 	cmp	r5, r8
    889c:	31a03005 	movcc	r3, r5
    88a0:	21a03008 	movcs	r3, r8
    88a4:	e1a0200a 	mov	r2, sl
    88a8:	e1a00009 	mov	r0, r9
    88ac:	e594b024 	ldr	fp, [r4, #36]	; 0x24
    88b0:	e594101c 	ldr	r1, [r4, #28]
    88b4:	e1a0e00f 	mov	lr, pc
    88b8:	e12fff1b 	bx	fp
    88bc:	e3500000 	cmp	r0, #0
    88c0:	da00006b 	ble	8a74 <__sfvwrite_r+0x23c>
    88c4:	e5973008 	ldr	r3, [r7, #8]
    88c8:	e0433000 	sub	r3, r3, r0
    88cc:	e3530000 	cmp	r3, #0
    88d0:	e5873008 	str	r3, [r7, #8]
    88d4:	e08aa000 	add	sl, sl, r0
    88d8:	e0455000 	sub	r5, r5, r0
    88dc:	1affffeb 	bne	8890 <__sfvwrite_r+0x58>
    88e0:	e3a00000 	mov	r0, #0
    88e4:	e28dd00c 	add	sp, sp, #12
    88e8:	e8bd4ff0 	pop	{r4, r5, r6, r7, r8, r9, sl, fp, lr}
    88ec:	e12fff1e 	bx	lr
    88f0:	e1a01004 	mov	r1, r4
    88f4:	e1a00009 	mov	r0, r9
    88f8:	eb000617 	bl	a15c <__swsetup_r>
    88fc:	e3500000 	cmp	r0, #0
    8900:	1a0000fa 	bne	8cf0 <__sfvwrite_r+0x4b8>
    8904:	e1d430fc 	ldrsh	r3, [r4, #12]
    8908:	e1a03803 	lsl	r3, r3, #16
    890c:	e1a08823 	lsr	r8, r3, #16
    8910:	e218a002 	ands	sl, r8, #2
    8914:	e5976000 	ldr	r6, [r7]
    8918:	1affffd9 	bne	8884 <__sfvwrite_r+0x4c>
    891c:	e2188001 	ands	r8, r8, #1
    8920:	1a00005c 	bne	8a98 <__sfvwrite_r+0x260>
    8924:	e1a05008 	mov	r5, r8
    8928:	e3550000 	cmp	r5, #0
    892c:	0a000043 	beq	8a40 <__sfvwrite_r+0x208>
    8930:	e3130402 	tst	r3, #33554432	; 0x2000000
    8934:	e594a008 	ldr	sl, [r4, #8]
    8938:	e1a03823 	lsr	r3, r3, #16
    893c:	0a000090 	beq	8b84 <__sfvwrite_r+0x34c>
    8940:	e15a0005 	cmp	sl, r5
    8944:	e1a0200a 	mov	r2, sl
    8948:	8a0000a4 	bhi	8be0 <__sfvwrite_r+0x3a8>
    894c:	e3130d12 	tst	r3, #1152	; 0x480
    8950:	0a0000a4 	beq	8be8 <__sfvwrite_r+0x3b0>
    8954:	e5940010 	ldr	r0, [r4, #16]
    8958:	e594a000 	ldr	sl, [r4]
    895c:	e5942014 	ldr	r2, [r4, #20]
    8960:	e04aa000 	sub	sl, sl, r0
    8964:	e0822082 	add	r2, r2, r2, lsl #1
    8968:	e0822fa2 	add	r2, r2, r2, lsr #31
    896c:	e28a1001 	add	r1, sl, #1
    8970:	e1a020c2 	asr	r2, r2, #1
    8974:	e0811005 	add	r1, r1, r5
    8978:	e1510002 	cmp	r1, r2
    897c:	91a0b002 	movls	fp, r2
    8980:	81a0b001 	movhi	fp, r1
    8984:	81a02001 	movhi	r2, r1
    8988:	e3130b01 	tst	r3, #1024	; 0x400
    898c:	0a0000c3 	beq	8ca0 <__sfvwrite_r+0x468>
    8990:	e1a01002 	mov	r1, r2
    8994:	e1a00009 	mov	r0, r9
    8998:	eb000111 	bl	8de4 <_malloc_r>
    899c:	e2503000 	subs	r3, r0, #0
    89a0:	0a0000ce 	beq	8ce0 <__sfvwrite_r+0x4a8>
    89a4:	e1a0200a 	mov	r2, sl
    89a8:	e5941010 	ldr	r1, [r4, #16]
    89ac:	e58d3004 	str	r3, [sp, #4]
    89b0:	eb000343 	bl	96c4 <memcpy>
    89b4:	e1d420bc 	ldrh	r2, [r4, #12]
    89b8:	e3c22d12 	bic	r2, r2, #1152	; 0x480
    89bc:	e3822080 	orr	r2, r2, #128	; 0x80
    89c0:	e1c420bc 	strh	r2, [r4, #12]
    89c4:	e59d3004 	ldr	r3, [sp, #4]
    89c8:	e083000a 	add	r0, r3, sl
    89cc:	e04ba00a 	sub	sl, fp, sl
    89d0:	e584a008 	str	sl, [r4, #8]
    89d4:	e1a02005 	mov	r2, r5
    89d8:	e1a0a005 	mov	sl, r5
    89dc:	e5843010 	str	r3, [r4, #16]
    89e0:	e584b014 	str	fp, [r4, #20]
    89e4:	e5840000 	str	r0, [r4]
    89e8:	e1a0b005 	mov	fp, r5
    89ec:	e3a05000 	mov	r5, #0
    89f0:	e1a01008 	mov	r1, r8
    89f4:	e58d2004 	str	r2, [sp, #4]
    89f8:	eb000379 	bl	97e4 <memmove>
    89fc:	e5943008 	ldr	r3, [r4, #8]
    8a00:	e59d2004 	ldr	r2, [sp, #4]
    8a04:	e043a00a 	sub	sl, r3, sl
    8a08:	e5943000 	ldr	r3, [r4]
    8a0c:	e0832002 	add	r2, r3, r2
    8a10:	e584a008 	str	sl, [r4, #8]
    8a14:	e5842000 	str	r2, [r4]
    8a18:	e5970008 	ldr	r0, [r7, #8]
    8a1c:	e088800b 	add	r8, r8, fp
    8a20:	e040b00b 	sub	fp, r0, fp
    8a24:	e35b0000 	cmp	fp, #0
    8a28:	e587b008 	str	fp, [r7, #8]
    8a2c:	0affffab 	beq	88e0 <__sfvwrite_r+0xa8>
    8a30:	e1d430fc 	ldrsh	r3, [r4, #12]
    8a34:	e3550000 	cmp	r5, #0
    8a38:	e1a03803 	lsl	r3, r3, #16
    8a3c:	1affffbb 	bne	8930 <__sfvwrite_r+0xf8>
    8a40:	e5968000 	ldr	r8, [r6]
    8a44:	e5965004 	ldr	r5, [r6, #4]
    8a48:	e2866008 	add	r6, r6, #8
    8a4c:	eaffffb5 	b	8928 <__sfvwrite_r+0xf0>
    8a50:	e596a000 	ldr	sl, [r6]
    8a54:	e5965004 	ldr	r5, [r6, #4]
    8a58:	e2866008 	add	r6, r6, #8
    8a5c:	eaffff8b 	b	8890 <__sfvwrite_r+0x58>
    8a60:	e1a01004 	mov	r1, r4
    8a64:	e1a00009 	mov	r0, r9
    8a68:	eb000715 	bl	a6c4 <_fflush_r>
    8a6c:	e3500000 	cmp	r0, #0
    8a70:	0a00002a 	beq	8b20 <__sfvwrite_r+0x2e8>
    8a74:	e1d430fc 	ldrsh	r3, [r4, #12]
    8a78:	e3e00000 	mvn	r0, #0
    8a7c:	e3833040 	orr	r3, r3, #64	; 0x40
    8a80:	e1c430bc 	strh	r3, [r4, #12]
    8a84:	e28dd00c 	add	sp, sp, #12
    8a88:	e8bd4ff0 	pop	{r4, r5, r6, r7, r8, r9, sl, fp, lr}
    8a8c:	e12fff1e 	bx	lr
    8a90:	e3a00000 	mov	r0, #0
    8a94:	e12fff1e 	bx	lr
    8a98:	e1a0000a 	mov	r0, sl
    8a9c:	e1a0b00a 	mov	fp, sl
    8aa0:	e1a0800a 	mov	r8, sl
    8aa4:	ea000024 	b	8b3c <__sfvwrite_r+0x304>
    8aa8:	e3500000 	cmp	r0, #0
    8aac:	0a00002b 	beq	8b60 <__sfvwrite_r+0x328>
    8ab0:	e1a0200a 	mov	r2, sl
    8ab4:	e1580002 	cmp	r8, r2
    8ab8:	31a02008 	movcc	r2, r8
    8abc:	e5941010 	ldr	r1, [r4, #16]
    8ac0:	e5943014 	ldr	r3, [r4, #20]
    8ac4:	e5945008 	ldr	r5, [r4, #8]
    8ac8:	e5940000 	ldr	r0, [r4]
    8acc:	e0835005 	add	r5, r3, r5
    8ad0:	e1500001 	cmp	r0, r1
    8ad4:	93a01000 	movls	r1, #0
    8ad8:	83a01001 	movhi	r1, #1
    8adc:	e1520005 	cmp	r2, r5
    8ae0:	d3a01000 	movle	r1, #0
    8ae4:	e3510000 	cmp	r1, #0
    8ae8:	1a000060 	bne	8c70 <__sfvwrite_r+0x438>
    8aec:	e1530002 	cmp	r3, r2
    8af0:	ca000052 	bgt	8c40 <__sfvwrite_r+0x408>
    8af4:	e5945024 	ldr	r5, [r4, #36]	; 0x24
    8af8:	e1a0200b 	mov	r2, fp
    8afc:	e1a00009 	mov	r0, r9
    8b00:	e594101c 	ldr	r1, [r4, #28]
    8b04:	e1a0e00f 	mov	lr, pc
    8b08:	e12fff15 	bx	r5
    8b0c:	e2505000 	subs	r5, r0, #0
    8b10:	daffffd7 	ble	8a74 <__sfvwrite_r+0x23c>
    8b14:	e05aa005 	subs	sl, sl, r5
    8b18:	13a00001 	movne	r0, #1
    8b1c:	0affffcf 	beq	8a60 <__sfvwrite_r+0x228>
    8b20:	e5973008 	ldr	r3, [r7, #8]
    8b24:	e0433005 	sub	r3, r3, r5
    8b28:	e3530000 	cmp	r3, #0
    8b2c:	e5873008 	str	r3, [r7, #8]
    8b30:	e08bb005 	add	fp, fp, r5
    8b34:	e0488005 	sub	r8, r8, r5
    8b38:	0affff68 	beq	88e0 <__sfvwrite_r+0xa8>
    8b3c:	e3580000 	cmp	r8, #0
    8b40:	1affffd8 	bne	8aa8 <__sfvwrite_r+0x270>
    8b44:	e2863008 	add	r3, r6, #8
    8b48:	e5138004 	ldr	r8, [r3, #-4]
    8b4c:	e3580000 	cmp	r8, #0
    8b50:	e1a06003 	mov	r6, r3
    8b54:	e513b008 	ldr	fp, [r3, #-8]
    8b58:	e2833008 	add	r3, r3, #8
    8b5c:	0afffff9 	beq	8b48 <__sfvwrite_r+0x310>
    8b60:	e1a02008 	mov	r2, r8
    8b64:	e3a0100a 	mov	r1, #10
    8b68:	e1a0000b 	mov	r0, fp
    8b6c:	eb000298 	bl	95d4 <memchr>
    8b70:	e3500000 	cmp	r0, #0
    8b74:	0a000056 	beq	8cd4 <__sfvwrite_r+0x49c>
    8b78:	e2800001 	add	r0, r0, #1
    8b7c:	e040a00b 	sub	sl, r0, fp
    8b80:	eaffffca 	b	8ab0 <__sfvwrite_r+0x278>
    8b84:	e5940000 	ldr	r0, [r4]
    8b88:	e5943010 	ldr	r3, [r4, #16]
    8b8c:	e1500003 	cmp	r0, r3
    8b90:	8a000016 	bhi	8bf0 <__sfvwrite_r+0x3b8>
    8b94:	e594b014 	ldr	fp, [r4, #20]
    8b98:	e15b0005 	cmp	fp, r5
    8b9c:	8a000013 	bhi	8bf0 <__sfvwrite_r+0x3b8>
    8ba0:	e3750106 	cmn	r5, #-2147483647	; 0x80000001
    8ba4:	31a00005 	movcc	r0, r5
    8ba8:	23e00102 	mvncs	r0, #-2147483648	; 0x80000000
    8bac:	e1a0100b 	mov	r1, fp
    8bb0:	eb000910 	bl	aff8 <__divsi3>
    8bb4:	e1a02008 	mov	r2, r8
    8bb8:	e003009b 	mul	r3, fp, r0
    8bbc:	e594a024 	ldr	sl, [r4, #36]	; 0x24
    8bc0:	e1a00009 	mov	r0, r9
    8bc4:	e594101c 	ldr	r1, [r4, #28]
    8bc8:	e1a0e00f 	mov	lr, pc
    8bcc:	e12fff1a 	bx	sl
    8bd0:	e250b000 	subs	fp, r0, #0
    8bd4:	daffffa6 	ble	8a74 <__sfvwrite_r+0x23c>
    8bd8:	e045500b 	sub	r5, r5, fp
    8bdc:	eaffff8d 	b	8a18 <__sfvwrite_r+0x1e0>
    8be0:	e1a0a005 	mov	sl, r5
    8be4:	e1a02005 	mov	r2, r5
    8be8:	e5940000 	ldr	r0, [r4]
    8bec:	eaffff7d 	b	89e8 <__sfvwrite_r+0x1b0>
    8bf0:	e15a0005 	cmp	sl, r5
    8bf4:	31a0b00a 	movcc	fp, sl
    8bf8:	21a0b005 	movcs	fp, r5
    8bfc:	e1a01008 	mov	r1, r8
    8c00:	e1a0200b 	mov	r2, fp
    8c04:	eb0002f6 	bl	97e4 <memmove>
    8c08:	e5943008 	ldr	r3, [r4, #8]
    8c0c:	e043300b 	sub	r3, r3, fp
    8c10:	e5843008 	str	r3, [r4, #8]
    8c14:	e3530000 	cmp	r3, #0
    8c18:	e5943000 	ldr	r3, [r4]
    8c1c:	e083300b 	add	r3, r3, fp
    8c20:	e5843000 	str	r3, [r4]
    8c24:	1affffeb 	bne	8bd8 <__sfvwrite_r+0x3a0>
    8c28:	e1a01004 	mov	r1, r4
    8c2c:	e1a00009 	mov	r0, r9
    8c30:	eb0006a3 	bl	a6c4 <_fflush_r>
    8c34:	e3500000 	cmp	r0, #0
    8c38:	0affffe6 	beq	8bd8 <__sfvwrite_r+0x3a0>
    8c3c:	eaffff8c 	b	8a74 <__sfvwrite_r+0x23c>
    8c40:	e1a0100b 	mov	r1, fp
    8c44:	e1a05002 	mov	r5, r2
    8c48:	e58d2004 	str	r2, [sp, #4]
    8c4c:	eb0002e4 	bl	97e4 <memmove>
    8c50:	e5943008 	ldr	r3, [r4, #8]
    8c54:	e59d2004 	ldr	r2, [sp, #4]
    8c58:	e0433002 	sub	r3, r3, r2
    8c5c:	e5843008 	str	r3, [r4, #8]
    8c60:	e5943000 	ldr	r3, [r4]
    8c64:	e0832002 	add	r2, r3, r2
    8c68:	e5842000 	str	r2, [r4]
    8c6c:	eaffffa8 	b	8b14 <__sfvwrite_r+0x2dc>
    8c70:	e1a02005 	mov	r2, r5
    8c74:	e1a0100b 	mov	r1, fp
    8c78:	eb0002d9 	bl	97e4 <memmove>
    8c7c:	e5943000 	ldr	r3, [r4]
    8c80:	e0833005 	add	r3, r3, r5
    8c84:	e1a01004 	mov	r1, r4
    8c88:	e1a00009 	mov	r0, r9
    8c8c:	e5843000 	str	r3, [r4]
    8c90:	eb00068b 	bl	a6c4 <_fflush_r>
    8c94:	e3500000 	cmp	r0, #0
    8c98:	0affff9d 	beq	8b14 <__sfvwrite_r+0x2dc>
    8c9c:	eaffff74 	b	8a74 <__sfvwrite_r+0x23c>
    8ca0:	e1a01000 	mov	r1, r0
    8ca4:	e1a00009 	mov	r0, r9
    8ca8:	eb00036c 	bl	9a60 <_realloc_r>
    8cac:	e2503000 	subs	r3, r0, #0
    8cb0:	1affff44 	bne	89c8 <__sfvwrite_r+0x190>
    8cb4:	e1a00009 	mov	r0, r9
    8cb8:	e5941010 	ldr	r1, [r4, #16]
    8cbc:	eb0006f8 	bl	a8a4 <_free_r>
    8cc0:	e3a0200c 	mov	r2, #12
    8cc4:	e1d430fc 	ldrsh	r3, [r4, #12]
    8cc8:	e5892000 	str	r2, [r9]
    8ccc:	e3c33080 	bic	r3, r3, #128	; 0x80
    8cd0:	eaffff68 	b	8a78 <__sfvwrite_r+0x240>
    8cd4:	e2882001 	add	r2, r8, #1
    8cd8:	e1a0a002 	mov	sl, r2
    8cdc:	eaffff74 	b	8ab4 <__sfvwrite_r+0x27c>
    8ce0:	e3a0200c 	mov	r2, #12
    8ce4:	e1d430fc 	ldrsh	r3, [r4, #12]
    8ce8:	e5892000 	str	r2, [r9]
    8cec:	eaffff61 	b	8a78 <__sfvwrite_r+0x240>
    8cf0:	e3e00000 	mvn	r0, #0
    8cf4:	eafffefa 	b	88e4 <__sfvwrite_r+0xac>
    8cf8:	7ffffc00 	svcvc	0x00fffc00

00008cfc <_fwalk>:
    8cfc:	e92d41f0 	push	{r4, r5, r6, r7, r8, lr}
    8d00:	e3a06000 	mov	r6, #0
    8d04:	e1a08001 	mov	r8, r1
    8d08:	e2807e2e 	add	r7, r0, #736	; 0x2e0
    8d0c:	e5975004 	ldr	r5, [r7, #4]
    8d10:	e2555001 	subs	r5, r5, #1
    8d14:	e5974008 	ldr	r4, [r7, #8]
    8d18:	4a00000d 	bmi	8d54 <_fwalk+0x58>
    8d1c:	e1d430bc 	ldrh	r3, [r4, #12]
    8d20:	e3530001 	cmp	r3, #1
    8d24:	e2455001 	sub	r5, r5, #1
    8d28:	9a000006 	bls	8d48 <_fwalk+0x4c>
    8d2c:	e1d430fe 	ldrsh	r3, [r4, #14]
    8d30:	e3730001 	cmn	r3, #1
    8d34:	0a000003 	beq	8d48 <_fwalk+0x4c>
    8d38:	e1a00004 	mov	r0, r4
    8d3c:	e1a0e00f 	mov	lr, pc
    8d40:	e12fff18 	bx	r8
    8d44:	e1866000 	orr	r6, r6, r0
    8d48:	e3750001 	cmn	r5, #1
    8d4c:	e2844068 	add	r4, r4, #104	; 0x68
    8d50:	1afffff1 	bne	8d1c <_fwalk+0x20>
    8d54:	e5977000 	ldr	r7, [r7]
    8d58:	e3570000 	cmp	r7, #0
    8d5c:	1affffea 	bne	8d0c <_fwalk+0x10>
    8d60:	e1a00006 	mov	r0, r6
    8d64:	e8bd41f0 	pop	{r4, r5, r6, r7, r8, lr}
    8d68:	e12fff1e 	bx	lr

00008d6c <_fwalk_reent>:
    8d6c:	e92d47f0 	push	{r4, r5, r6, r7, r8, r9, sl, lr}
    8d70:	e3a09000 	mov	r9, #0
    8d74:	e1a07000 	mov	r7, r0
    8d78:	e1a08001 	mov	r8, r1
    8d7c:	e2806e2e 	add	r6, r0, #736	; 0x2e0
    8d80:	e5965004 	ldr	r5, [r6, #4]
    8d84:	e2555001 	subs	r5, r5, #1
    8d88:	e5964008 	ldr	r4, [r6, #8]
    8d8c:	4a00000e 	bmi	8dcc <_fwalk_reent+0x60>
    8d90:	e1d430bc 	ldrh	r3, [r4, #12]
    8d94:	e3530001 	cmp	r3, #1
    8d98:	e2455001 	sub	r5, r5, #1
    8d9c:	9a000007 	bls	8dc0 <_fwalk_reent+0x54>
    8da0:	e1d430fe 	ldrsh	r3, [r4, #14]
    8da4:	e3730001 	cmn	r3, #1
    8da8:	0a000004 	beq	8dc0 <_fwalk_reent+0x54>
    8dac:	e1a01004 	mov	r1, r4
    8db0:	e1a00007 	mov	r0, r7
    8db4:	e1a0e00f 	mov	lr, pc
    8db8:	e12fff18 	bx	r8
    8dbc:	e1899000 	orr	r9, r9, r0
    8dc0:	e3750001 	cmn	r5, #1
    8dc4:	e2844068 	add	r4, r4, #104	; 0x68
    8dc8:	1afffff0 	bne	8d90 <_fwalk_reent+0x24>
    8dcc:	e5966000 	ldr	r6, [r6]
    8dd0:	e3560000 	cmp	r6, #0
    8dd4:	1affffe9 	bne	8d80 <_fwalk_reent+0x14>
    8dd8:	e1a00009 	mov	r0, r9
    8ddc:	e8bd47f0 	pop	{r4, r5, r6, r7, r8, r9, sl, lr}
    8de0:	e12fff1e 	bx	lr

00008de4 <_malloc_r>:
    8de4:	e92d4ff0 	push	{r4, r5, r6, r7, r8, r9, sl, fp, lr}
    8de8:	e281300b 	add	r3, r1, #11
    8dec:	e3530016 	cmp	r3, #22
    8df0:	e1a07000 	mov	r7, r0
    8df4:	e24dd00c 	sub	sp, sp, #12
    8df8:	8a00001c 	bhi	8e70 <_malloc_r+0x8c>
    8dfc:	e3510010 	cmp	r1, #16
    8e00:	8a00003e 	bhi	8f00 <_malloc_r+0x11c>
    8e04:	eb000313 	bl	9a58 <__malloc_lock>
    8e08:	e3a05010 	mov	r5, #16
    8e0c:	e3a02018 	mov	r2, #24
    8e10:	e3a0c002 	mov	ip, #2
    8e14:	e59f87a8 	ldr	r8, [pc, #1960]	; 95c4 <_malloc_r+0x7e0>
    8e18:	e0882002 	add	r2, r8, r2
    8e1c:	e5924004 	ldr	r4, [r2, #4]
    8e20:	e2423008 	sub	r3, r2, #8
    8e24:	e1540003 	cmp	r4, r3
    8e28:	0a00003b 	beq	8f1c <_malloc_r+0x138>
    8e2c:	e5943004 	ldr	r3, [r4, #4]
    8e30:	e594200c 	ldr	r2, [r4, #12]
    8e34:	e5941008 	ldr	r1, [r4, #8]
    8e38:	e3c33003 	bic	r3, r3, #3
    8e3c:	e0843003 	add	r3, r4, r3
    8e40:	e581200c 	str	r2, [r1, #12]
    8e44:	e5821008 	str	r1, [r2, #8]
    8e48:	e5932004 	ldr	r2, [r3, #4]
    8e4c:	e3822001 	orr	r2, r2, #1
    8e50:	e1a00007 	mov	r0, r7
    8e54:	e5832004 	str	r2, [r3, #4]
    8e58:	e2844008 	add	r4, r4, #8
    8e5c:	eb0002fe 	bl	9a5c <__malloc_unlock>
    8e60:	e1a00004 	mov	r0, r4
    8e64:	e28dd00c 	add	sp, sp, #12
    8e68:	e8bd4ff0 	pop	{r4, r5, r6, r7, r8, r9, sl, fp, lr}
    8e6c:	e12fff1e 	bx	lr
    8e70:	e3c35007 	bic	r5, r3, #7
    8e74:	e1510005 	cmp	r1, r5
    8e78:	93a01000 	movls	r1, #0
    8e7c:	83a01001 	movhi	r1, #1
    8e80:	e1913fa3 	orrs	r3, r1, r3, lsr #31
    8e84:	1a00001d 	bne	8f00 <_malloc_r+0x11c>
    8e88:	eb0002f2 	bl	9a58 <__malloc_lock>
    8e8c:	e3550f7e 	cmp	r5, #504	; 0x1f8
    8e90:	3a00013b 	bcc	9384 <_malloc_r+0x5a0>
    8e94:	e1b034a5 	lsrs	r3, r5, #9
    8e98:	0a0000ae 	beq	9158 <_malloc_r+0x374>
    8e9c:	e3530004 	cmp	r3, #4
    8ea0:	8a00011d 	bhi	931c <_malloc_r+0x538>
    8ea4:	e1a03325 	lsr	r3, r5, #6
    8ea8:	e283c039 	add	ip, r3, #57	; 0x39
    8eac:	e283e038 	add	lr, r3, #56	; 0x38
    8eb0:	e1a0018c 	lsl	r0, ip, #3
    8eb4:	e59f8708 	ldr	r8, [pc, #1800]	; 95c4 <_malloc_r+0x7e0>
    8eb8:	e0880000 	add	r0, r8, r0
    8ebc:	e5903004 	ldr	r3, [r0, #4]
    8ec0:	e2400008 	sub	r0, r0, #8
    8ec4:	e1500003 	cmp	r0, r3
    8ec8:	1a000005 	bne	8ee4 <_malloc_r+0x100>
    8ecc:	ea000016 	b	8f2c <_malloc_r+0x148>
    8ed0:	e3510000 	cmp	r1, #0
    8ed4:	aa0000e6 	bge	9274 <_malloc_r+0x490>
    8ed8:	e593300c 	ldr	r3, [r3, #12]
    8edc:	e1500003 	cmp	r0, r3
    8ee0:	0a000011 	beq	8f2c <_malloc_r+0x148>
    8ee4:	e5932004 	ldr	r2, [r3, #4]
    8ee8:	e3c22003 	bic	r2, r2, #3
    8eec:	e0421005 	sub	r1, r2, r5
    8ef0:	e351000f 	cmp	r1, #15
    8ef4:	dafffff5 	ble	8ed0 <_malloc_r+0xec>
    8ef8:	e1a0c00e 	mov	ip, lr
    8efc:	ea00000a 	b	8f2c <_malloc_r+0x148>
    8f00:	e3a04000 	mov	r4, #0
    8f04:	e3a0300c 	mov	r3, #12
    8f08:	e1a00004 	mov	r0, r4
    8f0c:	e5873000 	str	r3, [r7]
    8f10:	e28dd00c 	add	sp, sp, #12
    8f14:	e8bd4ff0 	pop	{r4, r5, r6, r7, r8, r9, sl, fp, lr}
    8f18:	e12fff1e 	bx	lr
    8f1c:	e592400c 	ldr	r4, [r2, #12]
    8f20:	e1520004 	cmp	r2, r4
    8f24:	028cc002 	addeq	ip, ip, #2
    8f28:	1affffbf 	bne	8e2c <_malloc_r+0x48>
    8f2c:	e5984010 	ldr	r4, [r8, #16]
    8f30:	e59fe690 	ldr	lr, [pc, #1680]	; 95c8 <_malloc_r+0x7e4>
    8f34:	e154000e 	cmp	r4, lr
    8f38:	05986004 	ldreq	r6, [r8, #4]
    8f3c:	0a000018 	beq	8fa4 <_malloc_r+0x1c0>
    8f40:	e5941004 	ldr	r1, [r4, #4]
    8f44:	e3c11003 	bic	r1, r1, #3
    8f48:	e0413005 	sub	r3, r1, r5
    8f4c:	e353000f 	cmp	r3, #15
    8f50:	ca00010e 	bgt	9390 <_malloc_r+0x5ac>
    8f54:	e3530000 	cmp	r3, #0
    8f58:	e588e014 	str	lr, [r8, #20]
    8f5c:	e588e010 	str	lr, [r8, #16]
    8f60:	aa0000ae 	bge	9220 <_malloc_r+0x43c>
    8f64:	e3510c02 	cmp	r1, #512	; 0x200
    8f68:	2a0000d0 	bcs	92b0 <_malloc_r+0x4cc>
    8f6c:	e3a02001 	mov	r2, #1
    8f70:	e5986004 	ldr	r6, [r8, #4]
    8f74:	e1a031a1 	lsr	r3, r1, #3
    8f78:	e0833002 	add	r3, r3, r2
    8f7c:	e1a012a1 	lsr	r1, r1, #5
    8f80:	e1866112 	orr	r6, r6, r2, lsl r1
    8f84:	e7981183 	ldr	r1, [r8, r3, lsl #3]
    8f88:	e0882183 	add	r2, r8, r3, lsl #3
    8f8c:	e2422008 	sub	r2, r2, #8
    8f90:	e5841008 	str	r1, [r4, #8]
    8f94:	e584200c 	str	r2, [r4, #12]
    8f98:	e5886004 	str	r6, [r8, #4]
    8f9c:	e7884183 	str	r4, [r8, r3, lsl #3]
    8fa0:	e581400c 	str	r4, [r1, #12]
    8fa4:	e3a01001 	mov	r1, #1
    8fa8:	e1a0314c 	asr	r3, ip, #2
    8fac:	e1a01311 	lsl	r1, r1, r3
    8fb0:	e1510006 	cmp	r1, r6
    8fb4:	9a00006b 	bls	9168 <_malloc_r+0x384>
    8fb8:	e5984008 	ldr	r4, [r8, #8]
    8fbc:	e5946004 	ldr	r6, [r4, #4]
    8fc0:	e3c66003 	bic	r6, r6, #3
    8fc4:	e1550006 	cmp	r5, r6
    8fc8:	93a02000 	movls	r2, #0
    8fcc:	83a02001 	movhi	r2, #1
    8fd0:	e0463005 	sub	r3, r6, r5
    8fd4:	e353000f 	cmp	r3, #15
    8fd8:	d3822001 	orrle	r2, r2, #1
    8fdc:	e3520000 	cmp	r2, #0
    8fe0:	0a000096 	beq	9240 <_malloc_r+0x45c>
    8fe4:	e5983408 	ldr	r3, [r8, #1032]	; 0x408
    8fe8:	e59fa5dc 	ldr	sl, [pc, #1500]	; 95cc <_malloc_r+0x7e8>
    8fec:	e3730001 	cmn	r3, #1
    8ff0:	e59a3000 	ldr	r3, [sl]
    8ff4:	e0853003 	add	r3, r5, r3
    8ff8:	12833a01 	addne	r3, r3, #4096	; 0x1000
    8ffc:	1283300f 	addne	r3, r3, #15
    9000:	13c39eff 	bicne	r9, r3, #4080	; 0xff0
    9004:	02839010 	addeq	r9, r3, #16
    9008:	13c9900f 	bicne	r9, r9, #15
    900c:	e1a01009 	mov	r1, r9
    9010:	e1a00007 	mov	r0, r7
    9014:	eb0003f6 	bl	9ff4 <_sbrk_r>
    9018:	e3700001 	cmn	r0, #1
    901c:	e1a02000 	mov	r2, r0
    9020:	e084b006 	add	fp, r4, r6
    9024:	0a000128 	beq	94cc <_malloc_r+0x6e8>
    9028:	e1540008 	cmp	r4, r8
    902c:	115b0000 	cmpne	fp, r0
    9030:	8a000125 	bhi	94cc <_malloc_r+0x6e8>
    9034:	e59a1004 	ldr	r1, [sl, #4]
    9038:	e15b0000 	cmp	fp, r0
    903c:	e0891001 	add	r1, r9, r1
    9040:	e58a1004 	str	r1, [sl, #4]
    9044:	0a000117 	beq	94a8 <_malloc_r+0x6c4>
    9048:	e5983408 	ldr	r3, [r8, #1032]	; 0x408
    904c:	e3730001 	cmn	r3, #1
    9050:	1042b00b 	subne	fp, r2, fp
    9054:	108b1001 	addne	r1, fp, r1
    9058:	05882408 	streq	r2, [r8, #1032]	; 0x408
    905c:	158a1004 	strne	r1, [sl, #4]
    9060:	e2123007 	ands	r3, r2, #7
    9064:	1a0000e0 	bne	93ec <_malloc_r+0x608>
    9068:	e0821009 	add	r1, r2, r9
    906c:	e2611000 	rsb	r1, r1, #0
    9070:	e1a0ba01 	lsl	fp, r1, #20
    9074:	e1a0ba2b 	lsr	fp, fp, #20
    9078:	e1a0100b 	mov	r1, fp
    907c:	e1a00007 	mov	r0, r7
    9080:	e58d3004 	str	r3, [sp, #4]
    9084:	e58d2000 	str	r2, [sp]
    9088:	eb0003d9 	bl	9ff4 <_sbrk_r>
    908c:	e89d000c 	ldm	sp, {r2, r3}
    9090:	e3700001 	cmn	r0, #1
    9094:	01a0b003 	moveq	fp, r3
    9098:	0a000001 	beq	90a4 <_malloc_r+0x2c0>
    909c:	e0403002 	sub	r3, r0, r2
    90a0:	e083900b 	add	r9, r3, fp
    90a4:	e59a1004 	ldr	r1, [sl, #4]
    90a8:	e3893001 	orr	r3, r9, #1
    90ac:	e08b1001 	add	r1, fp, r1
    90b0:	e1540008 	cmp	r4, r8
    90b4:	e5882008 	str	r2, [r8, #8]
    90b8:	e58a1004 	str	r1, [sl, #4]
    90bc:	e5823004 	str	r3, [r2, #4]
    90c0:	0a000118 	beq	9528 <_malloc_r+0x744>
    90c4:	e356000f 	cmp	r6, #15
    90c8:	93a03001 	movls	r3, #1
    90cc:	95823004 	strls	r3, [r2, #4]
    90d0:	9a00001c 	bls	9148 <_malloc_r+0x364>
    90d4:	e3a0c005 	mov	ip, #5
    90d8:	e5940004 	ldr	r0, [r4, #4]
    90dc:	e246300c 	sub	r3, r6, #12
    90e0:	e3c33007 	bic	r3, r3, #7
    90e4:	e2000001 	and	r0, r0, #1
    90e8:	e1800003 	orr	r0, r0, r3
    90ec:	e353000f 	cmp	r3, #15
    90f0:	e0843003 	add	r3, r4, r3
    90f4:	e5840004 	str	r0, [r4, #4]
    90f8:	e583c004 	str	ip, [r3, #4]
    90fc:	e583c008 	str	ip, [r3, #8]
    9100:	8a000119 	bhi	956c <_malloc_r+0x788>
    9104:	e1a04002 	mov	r4, r2
    9108:	e5923004 	ldr	r3, [r2, #4]
    910c:	e59a202c 	ldr	r2, [sl, #44]	; 0x2c
    9110:	e1520001 	cmp	r2, r1
    9114:	e59a2030 	ldr	r2, [sl, #48]	; 0x30
    9118:	358a102c 	strcc	r1, [sl, #44]	; 0x2c
    911c:	e1520001 	cmp	r2, r1
    9120:	358a1030 	strcc	r1, [sl, #48]	; 0x30
    9124:	e3c39003 	bic	r9, r3, #3
    9128:	e0493005 	sub	r3, r9, r5
    912c:	e353000f 	cmp	r3, #15
    9130:	c3a02000 	movgt	r2, #0
    9134:	d3a02001 	movle	r2, #1
    9138:	e1550009 	cmp	r5, r9
    913c:	83822001 	orrhi	r2, r2, #1
    9140:	e3520000 	cmp	r2, #0
    9144:	0a00003d 	beq	9240 <_malloc_r+0x45c>
    9148:	e1a00007 	mov	r0, r7
    914c:	eb000242 	bl	9a5c <__malloc_unlock>
    9150:	e3a04000 	mov	r4, #0
    9154:	eaffff41 	b	8e60 <_malloc_r+0x7c>
    9158:	e3a00c02 	mov	r0, #512	; 0x200
    915c:	e3a0c040 	mov	ip, #64	; 0x40
    9160:	e3a0e03f 	mov	lr, #63	; 0x3f
    9164:	eaffff52 	b	8eb4 <_malloc_r+0xd0>
    9168:	e1110006 	tst	r1, r6
    916c:	1a000008 	bne	9194 <_malloc_r+0x3b0>
    9170:	e1a01081 	lsl	r1, r1, #1
    9174:	e3ccc003 	bic	ip, ip, #3
    9178:	e1110006 	tst	r1, r6
    917c:	e28cc004 	add	ip, ip, #4
    9180:	1a000003 	bne	9194 <_malloc_r+0x3b0>
    9184:	e1a01081 	lsl	r1, r1, #1
    9188:	e1110006 	tst	r1, r6
    918c:	e28cc004 	add	ip, ip, #4
    9190:	0afffffb 	beq	9184 <_malloc_r+0x3a0>
    9194:	e088918c 	add	r9, r8, ip, lsl #3
    9198:	e1a00009 	mov	r0, r9
    919c:	e1a0400c 	mov	r4, ip
    91a0:	e590600c 	ldr	r6, [r0, #12]
    91a4:	e1500006 	cmp	r0, r6
    91a8:	1a000005 	bne	91c4 <_malloc_r+0x3e0>
    91ac:	ea000063 	b	9340 <_malloc_r+0x55c>
    91b0:	e3520000 	cmp	r2, #0
    91b4:	aa000066 	bge	9354 <_malloc_r+0x570>
    91b8:	e596600c 	ldr	r6, [r6, #12]
    91bc:	e1500006 	cmp	r0, r6
    91c0:	0a00005e 	beq	9340 <_malloc_r+0x55c>
    91c4:	e5963004 	ldr	r3, [r6, #4]
    91c8:	e3c33003 	bic	r3, r3, #3
    91cc:	e0432005 	sub	r2, r3, r5
    91d0:	e352000f 	cmp	r2, #15
    91d4:	dafffff5 	ble	91b0 <_malloc_r+0x3cc>
    91d8:	e2864008 	add	r4, r6, #8
    91dc:	e8941010 	ldm	r4, {r4, ip}
    91e0:	e0861005 	add	r1, r6, r5
    91e4:	e3855001 	orr	r5, r5, #1
    91e8:	e5865004 	str	r5, [r6, #4]
    91ec:	e584c00c 	str	ip, [r4, #12]
    91f0:	e58c4008 	str	r4, [ip, #8]
    91f4:	e382c001 	orr	ip, r2, #1
    91f8:	e5881014 	str	r1, [r8, #20]
    91fc:	e5881010 	str	r1, [r8, #16]
    9200:	e1a00007 	mov	r0, r7
    9204:	e581e00c 	str	lr, [r1, #12]
    9208:	e581e008 	str	lr, [r1, #8]
    920c:	e581c004 	str	ip, [r1, #4]
    9210:	e7862003 	str	r2, [r6, r3]
    9214:	eb000210 	bl	9a5c <__malloc_unlock>
    9218:	e2864008 	add	r4, r6, #8
    921c:	eaffff0f 	b	8e60 <_malloc_r+0x7c>
    9220:	e0841001 	add	r1, r4, r1
    9224:	e5913004 	ldr	r3, [r1, #4]
    9228:	e3833001 	orr	r3, r3, #1
    922c:	e1a00007 	mov	r0, r7
    9230:	e5813004 	str	r3, [r1, #4]
    9234:	eb000208 	bl	9a5c <__malloc_unlock>
    9238:	e2844008 	add	r4, r4, #8
    923c:	eaffff07 	b	8e60 <_malloc_r+0x7c>
    9240:	e0842005 	add	r2, r4, r5
    9244:	e3833001 	orr	r3, r3, #1
    9248:	e3855001 	orr	r5, r5, #1
    924c:	e5845004 	str	r5, [r4, #4]
    9250:	e1a00007 	mov	r0, r7
    9254:	e5882008 	str	r2, [r8, #8]
    9258:	e2844008 	add	r4, r4, #8
    925c:	e5823004 	str	r3, [r2, #4]
    9260:	eb0001fd 	bl	9a5c <__malloc_unlock>
    9264:	e1a00004 	mov	r0, r4
    9268:	e28dd00c 	add	sp, sp, #12
    926c:	e8bd4ff0 	pop	{r4, r5, r6, r7, r8, r9, sl, fp, lr}
    9270:	e12fff1e 	bx	lr
    9274:	e593100c 	ldr	r1, [r3, #12]
    9278:	e593c008 	ldr	ip, [r3, #8]
    927c:	e0832002 	add	r2, r3, r2
    9280:	e58c100c 	str	r1, [ip, #12]
    9284:	e581c008 	str	ip, [r1, #8]
    9288:	e5921004 	ldr	r1, [r2, #4]
    928c:	e2834008 	add	r4, r3, #8
    9290:	e3813001 	orr	r3, r1, #1
    9294:	e1a00007 	mov	r0, r7
    9298:	e5823004 	str	r3, [r2, #4]
    929c:	eb0001ee 	bl	9a5c <__malloc_unlock>
    92a0:	e1a00004 	mov	r0, r4
    92a4:	e28dd00c 	add	sp, sp, #12
    92a8:	e8bd4ff0 	pop	{r4, r5, r6, r7, r8, r9, sl, fp, lr}
    92ac:	e12fff1e 	bx	lr
    92b0:	e3510c0a 	cmp	r1, #2560	; 0xa00
    92b4:	e1a034a1 	lsr	r3, r1, #9
    92b8:	3a000042 	bcc	93c8 <_malloc_r+0x5e4>
    92bc:	e3530014 	cmp	r3, #20
    92c0:	8a00008a 	bhi	94f0 <_malloc_r+0x70c>
    92c4:	e283205c 	add	r2, r3, #92	; 0x5c
    92c8:	e1a02182 	lsl	r2, r2, #3
    92cc:	e283305b 	add	r3, r3, #91	; 0x5b
    92d0:	e7980002 	ldr	r0, [r8, r2]
    92d4:	e0882002 	add	r2, r8, r2
    92d8:	e2422008 	sub	r2, r2, #8
    92dc:	e1520000 	cmp	r2, r0
    92e0:	0a00007c 	beq	94d8 <_malloc_r+0x6f4>
    92e4:	e5903004 	ldr	r3, [r0, #4]
    92e8:	e3c33003 	bic	r3, r3, #3
    92ec:	e1530001 	cmp	r3, r1
    92f0:	9a000002 	bls	9300 <_malloc_r+0x51c>
    92f4:	e5900008 	ldr	r0, [r0, #8]
    92f8:	e1520000 	cmp	r2, r0
    92fc:	1afffff8 	bne	92e4 <_malloc_r+0x500>
    9300:	e590200c 	ldr	r2, [r0, #12]
    9304:	e5986004 	ldr	r6, [r8, #4]
    9308:	e584200c 	str	r2, [r4, #12]
    930c:	e5840008 	str	r0, [r4, #8]
    9310:	e5824008 	str	r4, [r2, #8]
    9314:	e580400c 	str	r4, [r0, #12]
    9318:	eaffff21 	b	8fa4 <_malloc_r+0x1c0>
    931c:	e3530014 	cmp	r3, #20
    9320:	9a00002d 	bls	93dc <_malloc_r+0x5f8>
    9324:	e3530054 	cmp	r3, #84	; 0x54
    9328:	8a000077 	bhi	950c <_malloc_r+0x728>
    932c:	e1a03625 	lsr	r3, r5, #12
    9330:	e283c06f 	add	ip, r3, #111	; 0x6f
    9334:	e283e06e 	add	lr, r3, #110	; 0x6e
    9338:	e1a0018c 	lsl	r0, ip, #3
    933c:	eafffedc 	b	8eb4 <_malloc_r+0xd0>
    9340:	e2844001 	add	r4, r4, #1
    9344:	e3140003 	tst	r4, #3
    9348:	e2800008 	add	r0, r0, #8
    934c:	1affff93 	bne	91a0 <_malloc_r+0x3bc>
    9350:	ea00003f 	b	9454 <_malloc_r+0x670>
    9354:	e1a04006 	mov	r4, r6
    9358:	e0863003 	add	r3, r6, r3
    935c:	e5932004 	ldr	r2, [r3, #4]
    9360:	e3822001 	orr	r2, r2, #1
    9364:	e596100c 	ldr	r1, [r6, #12]
    9368:	e5832004 	str	r2, [r3, #4]
    936c:	e5b43008 	ldr	r3, [r4, #8]!
    9370:	e1a00007 	mov	r0, r7
    9374:	e583100c 	str	r1, [r3, #12]
    9378:	e5813008 	str	r3, [r1, #8]
    937c:	eb0001b6 	bl	9a5c <__malloc_unlock>
    9380:	eafffeb6 	b	8e60 <_malloc_r+0x7c>
    9384:	e1a0c1a5 	lsr	ip, r5, #3
    9388:	e2852008 	add	r2, r5, #8
    938c:	eafffea0 	b	8e14 <_malloc_r+0x30>
    9390:	e0842005 	add	r2, r4, r5
    9394:	e383c001 	orr	ip, r3, #1
    9398:	e3855001 	orr	r5, r5, #1
    939c:	e5845004 	str	r5, [r4, #4]
    93a0:	e1a00007 	mov	r0, r7
    93a4:	e5882014 	str	r2, [r8, #20]
    93a8:	e5882010 	str	r2, [r8, #16]
    93ac:	e582e00c 	str	lr, [r2, #12]
    93b0:	e582e008 	str	lr, [r2, #8]
    93b4:	e582c004 	str	ip, [r2, #4]
    93b8:	e7843001 	str	r3, [r4, r1]
    93bc:	eb0001a6 	bl	9a5c <__malloc_unlock>
    93c0:	e2844008 	add	r4, r4, #8
    93c4:	eafffea5 	b	8e60 <_malloc_r+0x7c>
    93c8:	e1a03321 	lsr	r3, r1, #6
    93cc:	e2832039 	add	r2, r3, #57	; 0x39
    93d0:	e1a02182 	lsl	r2, r2, #3
    93d4:	e2833038 	add	r3, r3, #56	; 0x38
    93d8:	eaffffbc 	b	92d0 <_malloc_r+0x4ec>
    93dc:	e283c05c 	add	ip, r3, #92	; 0x5c
    93e0:	e283e05b 	add	lr, r3, #91	; 0x5b
    93e4:	e1a0018c 	lsl	r0, ip, #3
    93e8:	eafffeb1 	b	8eb4 <_malloc_r+0xd0>
    93ec:	e2631008 	rsb	r1, r3, #8
    93f0:	e0822001 	add	r2, r2, r1
    93f4:	e2631a01 	rsb	r1, r3, #4096	; 0x1000
    93f8:	e0829009 	add	r9, r2, r9
    93fc:	e2811008 	add	r1, r1, #8
    9400:	e0411009 	sub	r1, r1, r9
    9404:	e1a0ba01 	lsl	fp, r1, #20
    9408:	e1a0ba2b 	lsr	fp, fp, #20
    940c:	e1a0100b 	mov	r1, fp
    9410:	e1a00007 	mov	r0, r7
    9414:	e58d2004 	str	r2, [sp, #4]
    9418:	e58d3000 	str	r3, [sp]
    941c:	eb0002f4 	bl	9ff4 <_sbrk_r>
    9420:	e3700001 	cmn	r0, #1
    9424:	e59d3000 	ldr	r3, [sp]
    9428:	e59d2004 	ldr	r2, [sp, #4]
    942c:	1affff1a 	bne	909c <_malloc_r+0x2b8>
    9430:	e2433008 	sub	r3, r3, #8
    9434:	e0899003 	add	r9, r9, r3
    9438:	e3a0b000 	mov	fp, #0
    943c:	e0499002 	sub	r9, r9, r2
    9440:	eaffff17 	b	90a4 <_malloc_r+0x2c0>
    9444:	e4193008 	ldr	r3, [r9], #-8
    9448:	e1530009 	cmp	r3, r9
    944c:	e24cc001 	sub	ip, ip, #1
    9450:	1a000059 	bne	95bc <_malloc_r+0x7d8>
    9454:	e31c0003 	tst	ip, #3
    9458:	1afffff9 	bne	9444 <_malloc_r+0x660>
    945c:	e5983004 	ldr	r3, [r8, #4]
    9460:	e1c33001 	bic	r3, r3, r1
    9464:	e5883004 	str	r3, [r8, #4]
    9468:	e1b01081 	lsls	r1, r1, #1
    946c:	13a02001 	movne	r2, #1
    9470:	03a02000 	moveq	r2, #0
    9474:	e1510003 	cmp	r1, r3
    9478:	83a02000 	movhi	r2, #0
    947c:	92022001 	andls	r2, r2, #1
    9480:	e3520000 	cmp	r2, #0
    9484:	0afffecb 	beq	8fb8 <_malloc_r+0x1d4>
    9488:	e1110003 	tst	r1, r3
    948c:	1a000003 	bne	94a0 <_malloc_r+0x6bc>
    9490:	e1a01081 	lsl	r1, r1, #1
    9494:	e1110003 	tst	r1, r3
    9498:	e2844004 	add	r4, r4, #4
    949c:	0afffffb 	beq	9490 <_malloc_r+0x6ac>
    94a0:	e1a0c004 	mov	ip, r4
    94a4:	eaffff3a 	b	9194 <_malloc_r+0x3b0>
    94a8:	e1a03a0b 	lsl	r3, fp, #20
    94ac:	e1a03a23 	lsr	r3, r3, #20
    94b0:	e3530000 	cmp	r3, #0
    94b4:	1afffee3 	bne	9048 <_malloc_r+0x264>
    94b8:	e5984008 	ldr	r4, [r8, #8]
    94bc:	e0863009 	add	r3, r6, r9
    94c0:	e3833001 	orr	r3, r3, #1
    94c4:	e5843004 	str	r3, [r4, #4]
    94c8:	eaffff0f 	b	910c <_malloc_r+0x328>
    94cc:	e5984008 	ldr	r4, [r8, #8]
    94d0:	e5943004 	ldr	r3, [r4, #4]
    94d4:	eaffff12 	b	9124 <_malloc_r+0x340>
    94d8:	e3a01001 	mov	r1, #1
    94dc:	e5986004 	ldr	r6, [r8, #4]
    94e0:	e1a03143 	asr	r3, r3, #2
    94e4:	e1866311 	orr	r6, r6, r1, lsl r3
    94e8:	e5886004 	str	r6, [r8, #4]
    94ec:	eaffff85 	b	9308 <_malloc_r+0x524>
    94f0:	e3530054 	cmp	r3, #84	; 0x54
    94f4:	8a00000d 	bhi	9530 <_malloc_r+0x74c>
    94f8:	e1a03621 	lsr	r3, r1, #12
    94fc:	e283206f 	add	r2, r3, #111	; 0x6f
    9500:	e1a02182 	lsl	r2, r2, #3
    9504:	e283306e 	add	r3, r3, #110	; 0x6e
    9508:	eaffff70 	b	92d0 <_malloc_r+0x4ec>
    950c:	e3530f55 	cmp	r3, #340	; 0x154
    9510:	8a00000d 	bhi	954c <_malloc_r+0x768>
    9514:	e1a037a5 	lsr	r3, r5, #15
    9518:	e283c078 	add	ip, r3, #120	; 0x78
    951c:	e283e077 	add	lr, r3, #119	; 0x77
    9520:	e1a0018c 	lsl	r0, ip, #3
    9524:	eafffe62 	b	8eb4 <_malloc_r+0xd0>
    9528:	e1a04002 	mov	r4, r2
    952c:	eafffef6 	b	910c <_malloc_r+0x328>
    9530:	e3530f55 	cmp	r3, #340	; 0x154
    9534:	8a000013 	bhi	9588 <_malloc_r+0x7a4>
    9538:	e1a037a1 	lsr	r3, r1, #15
    953c:	e2832078 	add	r2, r3, #120	; 0x78
    9540:	e1a02182 	lsl	r2, r2, #3
    9544:	e2833077 	add	r3, r3, #119	; 0x77
    9548:	eaffff60 	b	92d0 <_malloc_r+0x4ec>
    954c:	e59f207c 	ldr	r2, [pc, #124]	; 95d0 <_malloc_r+0x7ec>
    9550:	e1530002 	cmp	r3, r2
    9554:	8a000014 	bhi	95ac <_malloc_r+0x7c8>
    9558:	e1a03925 	lsr	r3, r5, #18
    955c:	e283c07d 	add	ip, r3, #125	; 0x7d
    9560:	e283e07c 	add	lr, r3, #124	; 0x7c
    9564:	e1a0018c 	lsl	r0, ip, #3
    9568:	eafffe51 	b	8eb4 <_malloc_r+0xd0>
    956c:	e2841008 	add	r1, r4, #8
    9570:	e1a00007 	mov	r0, r7
    9574:	eb0004ca 	bl	a8a4 <_free_r>
    9578:	e5984008 	ldr	r4, [r8, #8]
    957c:	e59a1004 	ldr	r1, [sl, #4]
    9580:	e5943004 	ldr	r3, [r4, #4]
    9584:	eafffee0 	b	910c <_malloc_r+0x328>
    9588:	e59f2040 	ldr	r2, [pc, #64]	; 95d0 <_malloc_r+0x7ec>
    958c:	e1530002 	cmp	r3, r2
    9590:	91a03921 	lsrls	r3, r1, #18
    9594:	9283207d 	addls	r2, r3, #125	; 0x7d
    9598:	83a02ffe 	movhi	r2, #1016	; 0x3f8
    959c:	83a0307e 	movhi	r3, #126	; 0x7e
    95a0:	9283307c 	addls	r3, r3, #124	; 0x7c
    95a4:	91a02182 	lslls	r2, r2, #3
    95a8:	eaffff48 	b	92d0 <_malloc_r+0x4ec>
    95ac:	e3a00ffe 	mov	r0, #1016	; 0x3f8
    95b0:	e3a0c07f 	mov	ip, #127	; 0x7f
    95b4:	e3a0e07e 	mov	lr, #126	; 0x7e
    95b8:	eafffe3d 	b	8eb4 <_malloc_r+0xd0>
    95bc:	e5983004 	ldr	r3, [r8, #4]
    95c0:	eaffffa8 	b	9468 <_malloc_r+0x684>
    95c4:	0000b598 	muleq	r0, r8, r5
    95c8:	0000b5a0 	andeq	fp, r0, r0, lsr #11
    95cc:	0000b9a8 	andeq	fp, r0, r8, lsr #19
    95d0:	00000554 	andeq	r0, r0, r4, asr r5

000095d4 <memchr>:
    95d4:	e3100003 	tst	r0, #3
    95d8:	e20110ff 	and	r1, r1, #255	; 0xff
    95dc:	0a000034 	beq	96b4 <memchr+0xe0>
    95e0:	e3520000 	cmp	r2, #0
    95e4:	e1a03000 	mov	r3, r0
    95e8:	e242c001 	sub	ip, r2, #1
    95ec:	1a000002 	bne	95fc <memchr+0x28>
    95f0:	ea000018 	b	9658 <memchr+0x84>
    95f4:	e25cc001 	subs	ip, ip, #1
    95f8:	3a000016 	bcc	9658 <memchr+0x84>
    95fc:	e1a00003 	mov	r0, r3
    9600:	e4d32001 	ldrb	r2, [r3], #1
    9604:	e1520001 	cmp	r2, r1
    9608:	012fff1e 	bxeq	lr
    960c:	e3130003 	tst	r3, #3
    9610:	e1a00003 	mov	r0, r3
    9614:	1afffff6 	bne	95f4 <memchr+0x20>
    9618:	e35c0003 	cmp	ip, #3
    961c:	e92d4070 	push	{r4, r5, r6, lr}
    9620:	8a00000e 	bhi	9660 <memchr+0x8c>
    9624:	e35c0000 	cmp	ip, #0
    9628:	0a00001e 	beq	96a8 <memchr+0xd4>
    962c:	e1a02000 	mov	r2, r0
    9630:	e080300c 	add	r3, r0, ip
    9634:	ea000001 	b	9640 <memchr+0x6c>
    9638:	e1520003 	cmp	r2, r3
    963c:	0a000019 	beq	96a8 <memchr+0xd4>
    9640:	e1a00002 	mov	r0, r2
    9644:	e4d2c001 	ldrb	ip, [r2], #1
    9648:	e15c0001 	cmp	ip, r1
    964c:	1afffff9 	bne	9638 <memchr+0x64>
    9650:	e8bd4070 	pop	{r4, r5, r6, lr}
    9654:	e12fff1e 	bx	lr
    9658:	e3a00000 	mov	r0, #0
    965c:	e12fff1e 	bx	lr
    9660:	e1a02000 	mov	r2, r0
    9664:	e1814401 	orr	r4, r1, r1, lsl #8
    9668:	e59f604c 	ldr	r6, [pc, #76]	; 96bc <memchr+0xe8>
    966c:	e59f504c 	ldr	r5, [pc, #76]	; 96c0 <memchr+0xec>
    9670:	e1844804 	orr	r4, r4, r4, lsl #16
    9674:	e1a00002 	mov	r0, r2
    9678:	e5903000 	ldr	r3, [r0]
    967c:	e0233004 	eor	r3, r3, r4
    9680:	e083e006 	add	lr, r3, r6
    9684:	e1ce3003 	bic	r3, lr, r3
    9688:	e1130005 	tst	r3, r5
    968c:	e2822004 	add	r2, r2, #4
    9690:	1affffe5 	bne	962c <memchr+0x58>
    9694:	e24cc004 	sub	ip, ip, #4
    9698:	e35c0003 	cmp	ip, #3
    969c:	e1a00002 	mov	r0, r2
    96a0:	8afffff3 	bhi	9674 <memchr+0xa0>
    96a4:	eaffffde 	b	9624 <memchr+0x50>
    96a8:	e3a00000 	mov	r0, #0
    96ac:	e8bd4070 	pop	{r4, r5, r6, lr}
    96b0:	e12fff1e 	bx	lr
    96b4:	e1a0c002 	mov	ip, r2
    96b8:	eaffffd6 	b	9618 <memchr+0x44>
    96bc:	fefefeff 	mrc2	14, 7, pc, cr14, cr15, {7}
    96c0:	80808080 	addhi	r8, r0, r0, lsl #1

000096c4 <memcpy>:
    96c4:	e352000f 	cmp	r2, #15
    96c8:	9a000036 	bls	97a8 <memcpy+0xe4>
    96cc:	e1803001 	orr	r3, r0, r1
    96d0:	e3130003 	tst	r3, #3
    96d4:	1a00003f 	bne	97d8 <memcpy+0x114>
    96d8:	e242c010 	sub	ip, r2, #16
    96dc:	e92d40f0 	push	{r4, r5, r6, r7, lr}
    96e0:	e2814020 	add	r4, r1, #32
    96e4:	e3cce00f 	bic	lr, ip, #15
    96e8:	e2813010 	add	r3, r1, #16
    96ec:	e2806010 	add	r6, r0, #16
    96f0:	e084400e 	add	r4, r4, lr
    96f4:	e1a0522c 	lsr	r5, ip, #4
    96f8:	e513e00c 	ldr	lr, [r3, #-12]
    96fc:	e513c008 	ldr	ip, [r3, #-8]
    9700:	e5137010 	ldr	r7, [r3, #-16]
    9704:	e506e00c 	str	lr, [r6, #-12]
    9708:	e2833010 	add	r3, r3, #16
    970c:	e513e014 	ldr	lr, [r3, #-20]	; 0xffffffec
    9710:	e1530004 	cmp	r3, r4
    9714:	e9065000 	stmdb	r6, {ip, lr}
    9718:	e5067010 	str	r7, [r6, #-16]
    971c:	e2866010 	add	r6, r6, #16
    9720:	1afffff4 	bne	96f8 <memcpy+0x34>
    9724:	e285c001 	add	ip, r5, #1
    9728:	e312000c 	tst	r2, #12
    972c:	e202300f 	and	r3, r2, #15
    9730:	e081120c 	add	r1, r1, ip, lsl #4
    9734:	01a02003 	moveq	r2, r3
    9738:	e080c20c 	add	ip, r0, ip, lsl #4
    973c:	0a00000d 	beq	9778 <memcpy+0xb4>
    9740:	e1a04001 	mov	r4, r1
    9744:	e2433004 	sub	r3, r3, #4
    9748:	e3c36003 	bic	r6, r3, #3
    974c:	e1a0e123 	lsr	lr, r3, #2
    9750:	e08c6006 	add	r6, ip, r6
    9754:	e24c3004 	sub	r3, ip, #4
    9758:	e4945004 	ldr	r5, [r4], #4
    975c:	e5a35004 	str	r5, [r3, #4]!
    9760:	e1530006 	cmp	r3, r6
    9764:	1afffffb 	bne	9758 <memcpy+0x94>
    9768:	e28e3001 	add	r3, lr, #1
    976c:	e2022003 	and	r2, r2, #3
    9770:	e08cc103 	add	ip, ip, r3, lsl #2
    9774:	e0811103 	add	r1, r1, r3, lsl #2
    9778:	e3520000 	cmp	r2, #0
    977c:	e2423001 	sub	r3, r2, #1
    9780:	12833001 	addne	r3, r3, #1
    9784:	124c2001 	subne	r2, ip, #1
    9788:	10813003 	addne	r3, r1, r3
    978c:	0a000003 	beq	97a0 <memcpy+0xdc>
    9790:	e4d1c001 	ldrb	ip, [r1], #1
    9794:	e1510003 	cmp	r1, r3
    9798:	e5e2c001 	strb	ip, [r2, #1]!
    979c:	1afffffb 	bne	9790 <memcpy+0xcc>
    97a0:	e8bd40f0 	pop	{r4, r5, r6, r7, lr}
    97a4:	e12fff1e 	bx	lr
    97a8:	e3520000 	cmp	r2, #0
    97ac:	e1a0c000 	mov	ip, r0
    97b0:	e2423001 	sub	r3, r2, #1
    97b4:	012fff1e 	bxeq	lr
    97b8:	e2833001 	add	r3, r3, #1
    97bc:	e24c2001 	sub	r2, ip, #1
    97c0:	e0813003 	add	r3, r1, r3
    97c4:	e4d1c001 	ldrb	ip, [r1], #1
    97c8:	e1510003 	cmp	r1, r3
    97cc:	e5e2c001 	strb	ip, [r2, #1]!
    97d0:	1afffffb 	bne	97c4 <memcpy+0x100>
    97d4:	e12fff1e 	bx	lr
    97d8:	e1a0c000 	mov	ip, r0
    97dc:	e2423001 	sub	r3, r2, #1
    97e0:	eafffff4 	b	97b8 <memcpy+0xf4>

000097e4 <memmove>:
    97e4:	e1500001 	cmp	r0, r1
    97e8:	9a00000a 	bls	9818 <memmove+0x34>
    97ec:	e0813002 	add	r3, r1, r2
    97f0:	e1530000 	cmp	r3, r0
    97f4:	9a000007 	bls	9818 <memmove+0x34>
    97f8:	e3520000 	cmp	r2, #0
    97fc:	e0802002 	add	r2, r0, r2
    9800:	012fff1e 	bxeq	lr
    9804:	e573c001 	ldrb	ip, [r3, #-1]!
    9808:	e1510003 	cmp	r1, r3
    980c:	e562c001 	strb	ip, [r2, #-1]!
    9810:	1afffffb 	bne	9804 <memmove+0x20>
    9814:	e12fff1e 	bx	lr
    9818:	e352000f 	cmp	r2, #15
    981c:	8a00000b 	bhi	9850 <memmove+0x6c>
    9820:	e3520000 	cmp	r2, #0
    9824:	e1a0c000 	mov	ip, r0
    9828:	e2422001 	sub	r2, r2, #1
    982c:	012fff1e 	bxeq	lr
    9830:	e2822001 	add	r2, r2, #1
    9834:	e24cc001 	sub	ip, ip, #1
    9838:	e0813002 	add	r3, r1, r2
    983c:	e4d12001 	ldrb	r2, [r1], #1
    9840:	e1510003 	cmp	r1, r3
    9844:	e5ec2001 	strb	r2, [ip, #1]!
    9848:	1afffffb 	bne	983c <memmove+0x58>
    984c:	e12fff1e 	bx	lr
    9850:	e1803001 	orr	r3, r0, r1
    9854:	e3130003 	tst	r3, #3
    9858:	1a000034 	bne	9930 <memmove+0x14c>
    985c:	e242c010 	sub	ip, r2, #16
    9860:	e92d4070 	push	{r4, r5, r6, lr}
    9864:	e3cc300f 	bic	r3, ip, #15
    9868:	e281e020 	add	lr, r1, #32
    986c:	e2814010 	add	r4, r1, #16
    9870:	e2805010 	add	r5, r0, #16
    9874:	e08ee003 	add	lr, lr, r3
    9878:	e1a0c22c 	lsr	ip, ip, #4
    987c:	e5143010 	ldr	r3, [r4, #-16]
    9880:	e5053010 	str	r3, [r5, #-16]
    9884:	e514300c 	ldr	r3, [r4, #-12]
    9888:	e505300c 	str	r3, [r5, #-12]
    988c:	e5143008 	ldr	r3, [r4, #-8]
    9890:	e5053008 	str	r3, [r5, #-8]
    9894:	e2844010 	add	r4, r4, #16
    9898:	e5143014 	ldr	r3, [r4, #-20]	; 0xffffffec
    989c:	e154000e 	cmp	r4, lr
    98a0:	e5053004 	str	r3, [r5, #-4]
    98a4:	e2855010 	add	r5, r5, #16
    98a8:	1afffff3 	bne	987c <memmove+0x98>
    98ac:	e28cc001 	add	ip, ip, #1
    98b0:	e312000c 	tst	r2, #12
    98b4:	e202300f 	and	r3, r2, #15
    98b8:	e081120c 	add	r1, r1, ip, lsl #4
    98bc:	01a02003 	moveq	r2, r3
    98c0:	e080c20c 	add	ip, r0, ip, lsl #4
    98c4:	0a00000d 	beq	9900 <memmove+0x11c>
    98c8:	e1a04001 	mov	r4, r1
    98cc:	e2433004 	sub	r3, r3, #4
    98d0:	e3c36003 	bic	r6, r3, #3
    98d4:	e1a0e123 	lsr	lr, r3, #2
    98d8:	e08c6006 	add	r6, ip, r6
    98dc:	e24c3004 	sub	r3, ip, #4
    98e0:	e4945004 	ldr	r5, [r4], #4
    98e4:	e5a35004 	str	r5, [r3, #4]!
    98e8:	e1530006 	cmp	r3, r6
    98ec:	1afffffb 	bne	98e0 <memmove+0xfc>
    98f0:	e28e3001 	add	r3, lr, #1
    98f4:	e2022003 	and	r2, r2, #3
    98f8:	e08cc103 	add	ip, ip, r3, lsl #2
    98fc:	e0811103 	add	r1, r1, r3, lsl #2
    9900:	e3520000 	cmp	r2, #0
    9904:	e2422001 	sub	r2, r2, #1
    9908:	12822001 	addne	r2, r2, #1
    990c:	124cc001 	subne	ip, ip, #1
    9910:	10813002 	addne	r3, r1, r2
    9914:	0a000003 	beq	9928 <memmove+0x144>
    9918:	e4d12001 	ldrb	r2, [r1], #1
    991c:	e1510003 	cmp	r1, r3
    9920:	e5ec2001 	strb	r2, [ip, #1]!
    9924:	1afffffb 	bne	9918 <memmove+0x134>
    9928:	e8bd4070 	pop	{r4, r5, r6, lr}
    992c:	e12fff1e 	bx	lr
    9930:	e1a0c000 	mov	ip, r0
    9934:	e2422001 	sub	r2, r2, #1
    9938:	eaffffbc 	b	9830 <memmove+0x4c>

0000993c <memset>:
    993c:	e3100003 	tst	r0, #3
    9940:	0a000040 	beq	9a48 <memset+0x10c>
    9944:	e3520000 	cmp	r2, #0
    9948:	e2422001 	sub	r2, r2, #1
    994c:	012fff1e 	bxeq	lr
    9950:	e1a03000 	mov	r3, r0
    9954:	e201c0ff 	and	ip, r1, #255	; 0xff
    9958:	ea000002 	b	9968 <memset+0x2c>
    995c:	e2422001 	sub	r2, r2, #1
    9960:	e3720001 	cmn	r2, #1
    9964:	012fff1e 	bxeq	lr
    9968:	e4c3c001 	strb	ip, [r3], #1
    996c:	e3130003 	tst	r3, #3
    9970:	1afffff9 	bne	995c <memset+0x20>
    9974:	e3520003 	cmp	r2, #3
    9978:	9a000028 	bls	9a20 <memset+0xe4>
    997c:	e92d4030 	push	{r4, r5, lr}
    9980:	e201e0ff 	and	lr, r1, #255	; 0xff
    9984:	e18ee40e 	orr	lr, lr, lr, lsl #8
    9988:	e352000f 	cmp	r2, #15
    998c:	e18ee80e 	orr	lr, lr, lr, lsl #16
    9990:	9a00002e 	bls	9a50 <memset+0x114>
    9994:	e242c010 	sub	ip, r2, #16
    9998:	e3cc400f 	bic	r4, ip, #15
    999c:	e2835020 	add	r5, r3, #32
    99a0:	e0855004 	add	r5, r5, r4
    99a4:	e1a0422c 	lsr	r4, ip, #4
    99a8:	e283c010 	add	ip, r3, #16
    99ac:	e50ce010 	str	lr, [ip, #-16]
    99b0:	e50ce00c 	str	lr, [ip, #-12]
    99b4:	e50ce008 	str	lr, [ip, #-8]
    99b8:	e50ce004 	str	lr, [ip, #-4]
    99bc:	e28cc010 	add	ip, ip, #16
    99c0:	e15c0005 	cmp	ip, r5
    99c4:	1afffff8 	bne	99ac <memset+0x70>
    99c8:	e284c001 	add	ip, r4, #1
    99cc:	e312000c 	tst	r2, #12
    99d0:	e083c20c 	add	ip, r3, ip, lsl #4
    99d4:	e202200f 	and	r2, r2, #15
    99d8:	0a000018 	beq	9a40 <memset+0x104>
    99dc:	e2423004 	sub	r3, r2, #4
    99e0:	e3c33003 	bic	r3, r3, #3
    99e4:	e2833004 	add	r3, r3, #4
    99e8:	e08c3003 	add	r3, ip, r3
    99ec:	e48ce004 	str	lr, [ip], #4
    99f0:	e153000c 	cmp	r3, ip
    99f4:	1afffffc 	bne	99ec <memset+0xb0>
    99f8:	e2022003 	and	r2, r2, #3
    99fc:	e3520000 	cmp	r2, #0
    9a00:	0a000004 	beq	9a18 <memset+0xdc>
    9a04:	e20110ff 	and	r1, r1, #255	; 0xff
    9a08:	e0832002 	add	r2, r3, r2
    9a0c:	e4c31001 	strb	r1, [r3], #1
    9a10:	e1520003 	cmp	r2, r3
    9a14:	1afffffc 	bne	9a0c <memset+0xd0>
    9a18:	e8bd4030 	pop	{r4, r5, lr}
    9a1c:	e12fff1e 	bx	lr
    9a20:	e3520000 	cmp	r2, #0
    9a24:	012fff1e 	bxeq	lr
    9a28:	e20110ff 	and	r1, r1, #255	; 0xff
    9a2c:	e0832002 	add	r2, r3, r2
    9a30:	e4c31001 	strb	r1, [r3], #1
    9a34:	e1520003 	cmp	r2, r3
    9a38:	1afffffc 	bne	9a30 <memset+0xf4>
    9a3c:	e12fff1e 	bx	lr
    9a40:	e1a0300c 	mov	r3, ip
    9a44:	eaffffec 	b	99fc <memset+0xc0>
    9a48:	e1a03000 	mov	r3, r0
    9a4c:	eaffffc8 	b	9974 <memset+0x38>
    9a50:	e1a0c003 	mov	ip, r3
    9a54:	eaffffe0 	b	99dc <memset+0xa0>

00009a58 <__malloc_lock>:
    9a58:	e12fff1e 	bx	lr

00009a5c <__malloc_unlock>:
    9a5c:	e12fff1e 	bx	lr

00009a60 <_realloc_r>:
    9a60:	e92d4ff0 	push	{r4, r5, r6, r7, r8, r9, sl, fp, lr}
    9a64:	e2514000 	subs	r4, r1, #0
    9a68:	e1a07002 	mov	r7, r2
    9a6c:	e24dd00c 	sub	sp, sp, #12
    9a70:	0a00007f 	beq	9c74 <_realloc_r+0x214>
    9a74:	e287500b 	add	r5, r7, #11
    9a78:	e1a09000 	mov	r9, r0
    9a7c:	ebfffff5 	bl	9a58 <__malloc_lock>
    9a80:	e3550016 	cmp	r5, #22
    9a84:	93a02010 	movls	r2, #16
    9a88:	93a03000 	movls	r3, #0
    9a8c:	91a05002 	movls	r5, r2
    9a90:	83c55007 	bichi	r5, r5, #7
    9a94:	81a03fa5 	lsrhi	r3, r5, #31
    9a98:	81a02005 	movhi	r2, r5
    9a9c:	e1550007 	cmp	r5, r7
    9aa0:	33833001 	orrcc	r3, r3, #1
    9aa4:	e3530000 	cmp	r3, #0
    9aa8:	13a0300c 	movne	r3, #12
    9aac:	e5141004 	ldr	r1, [r4, #-4]
    9ab0:	13a07000 	movne	r7, #0
    9ab4:	15893000 	strne	r3, [r9]
    9ab8:	e2448008 	sub	r8, r4, #8
    9abc:	e3c16003 	bic	r6, r1, #3
    9ac0:	1a00003a 	bne	9bb0 <_realloc_r+0x150>
    9ac4:	e1560002 	cmp	r6, r2
    9ac8:	aa000041 	bge	9bd4 <_realloc_r+0x174>
    9acc:	e59fb51c 	ldr	fp, [pc, #1308]	; 9ff0 <_realloc_r+0x590>
    9ad0:	e59b0008 	ldr	r0, [fp, #8]
    9ad4:	e0883006 	add	r3, r8, r6
    9ad8:	e1500003 	cmp	r0, r3
    9adc:	0a00006b 	beq	9c90 <_realloc_r+0x230>
    9ae0:	e593c004 	ldr	ip, [r3, #4]
    9ae4:	e3cc0001 	bic	r0, ip, #1
    9ae8:	e0830000 	add	r0, r3, r0
    9aec:	e5900004 	ldr	r0, [r0, #4]
    9af0:	e3100001 	tst	r0, #1
    9af4:	1a000057 	bne	9c58 <_realloc_r+0x1f8>
    9af8:	e3ccc003 	bic	ip, ip, #3
    9afc:	e086000c 	add	r0, r6, ip
    9b00:	e1500002 	cmp	r0, r2
    9b04:	aa00002d 	bge	9bc0 <_realloc_r+0x160>
    9b08:	e3110001 	tst	r1, #1
    9b0c:	1a00000a 	bne	9b3c <_realloc_r+0xdc>
    9b10:	e514a008 	ldr	sl, [r4, #-8]
    9b14:	e048a00a 	sub	sl, r8, sl
    9b18:	e59a1004 	ldr	r1, [sl, #4]
    9b1c:	e3c11003 	bic	r1, r1, #3
    9b20:	e081c00c 	add	ip, r1, ip
    9b24:	e08cc006 	add	ip, ip, r6
    9b28:	e15c0002 	cmp	ip, r2
    9b2c:	aa0000e0 	bge	9eb4 <_realloc_r+0x454>
    9b30:	e0863001 	add	r3, r6, r1
    9b34:	e1530002 	cmp	r3, r2
    9b38:	aa0000b0 	bge	9e00 <_realloc_r+0x3a0>
    9b3c:	e1a01007 	mov	r1, r7
    9b40:	e1a00009 	mov	r0, r9
    9b44:	ebfffca6 	bl	8de4 <_malloc_r>
    9b48:	e2507000 	subs	r7, r0, #0
    9b4c:	0a000015 	beq	9ba8 <_realloc_r+0x148>
    9b50:	e5143004 	ldr	r3, [r4, #-4]
    9b54:	e3c33001 	bic	r3, r3, #1
    9b58:	e0883003 	add	r3, r8, r3
    9b5c:	e2472008 	sub	r2, r7, #8
    9b60:	e1530002 	cmp	r3, r2
    9b64:	0a00008b 	beq	9d98 <_realloc_r+0x338>
    9b68:	e2462004 	sub	r2, r6, #4
    9b6c:	e3520024 	cmp	r2, #36	; 0x24
    9b70:	8a0000cc 	bhi	9ea8 <_realloc_r+0x448>
    9b74:	e3520013 	cmp	r2, #19
    9b78:	91a03007 	movls	r3, r7
    9b7c:	91a02004 	movls	r2, r4
    9b80:	8a000088 	bhi	9da8 <_realloc_r+0x348>
    9b84:	e5921000 	ldr	r1, [r2]
    9b88:	e5831000 	str	r1, [r3]
    9b8c:	e5921004 	ldr	r1, [r2, #4]
    9b90:	e5831004 	str	r1, [r3, #4]
    9b94:	e5922008 	ldr	r2, [r2, #8]
    9b98:	e5832008 	str	r2, [r3, #8]
    9b9c:	e1a01004 	mov	r1, r4
    9ba0:	e1a00009 	mov	r0, r9
    9ba4:	eb00033e 	bl	a8a4 <_free_r>
    9ba8:	e1a00009 	mov	r0, r9
    9bac:	ebffffaa 	bl	9a5c <__malloc_unlock>
    9bb0:	e1a00007 	mov	r0, r7
    9bb4:	e28dd00c 	add	sp, sp, #12
    9bb8:	e8bd4ff0 	pop	{r4, r5, r6, r7, r8, r9, sl, fp, lr}
    9bbc:	e12fff1e 	bx	lr
    9bc0:	e1a06000 	mov	r6, r0
    9bc4:	e593200c 	ldr	r2, [r3, #12]
    9bc8:	e5933008 	ldr	r3, [r3, #8]
    9bcc:	e583200c 	str	r2, [r3, #12]
    9bd0:	e5823008 	str	r3, [r2, #8]
    9bd4:	e0463005 	sub	r3, r6, r5
    9bd8:	e353000f 	cmp	r3, #15
    9bdc:	8a00000e 	bhi	9c1c <_realloc_r+0x1bc>
    9be0:	e5983004 	ldr	r3, [r8, #4]
    9be4:	e2033001 	and	r3, r3, #1
    9be8:	e1833006 	orr	r3, r3, r6
    9bec:	e5883004 	str	r3, [r8, #4]
    9bf0:	e0886006 	add	r6, r8, r6
    9bf4:	e5963004 	ldr	r3, [r6, #4]
    9bf8:	e3833001 	orr	r3, r3, #1
    9bfc:	e5863004 	str	r3, [r6, #4]
    9c00:	e1a07004 	mov	r7, r4
    9c04:	e1a00009 	mov	r0, r9
    9c08:	ebffff93 	bl	9a5c <__malloc_unlock>
    9c0c:	e1a00007 	mov	r0, r7
    9c10:	e28dd00c 	add	sp, sp, #12
    9c14:	e8bd4ff0 	pop	{r4, r5, r6, r7, r8, r9, sl, fp, lr}
    9c18:	e12fff1e 	bx	lr
    9c1c:	e5981004 	ldr	r1, [r8, #4]
    9c20:	e2011001 	and	r1, r1, #1
    9c24:	e1811005 	orr	r1, r1, r5
    9c28:	e5881004 	str	r1, [r8, #4]
    9c2c:	e3833001 	orr	r3, r3, #1
    9c30:	e0881005 	add	r1, r8, r5
    9c34:	e5813004 	str	r3, [r1, #4]
    9c38:	e0886006 	add	r6, r8, r6
    9c3c:	e5963004 	ldr	r3, [r6, #4]
    9c40:	e3833001 	orr	r3, r3, #1
    9c44:	e1a00009 	mov	r0, r9
    9c48:	e5863004 	str	r3, [r6, #4]
    9c4c:	e2811008 	add	r1, r1, #8
    9c50:	eb000313 	bl	a8a4 <_free_r>
    9c54:	eaffffe9 	b	9c00 <_realloc_r+0x1a0>
    9c58:	e3110001 	tst	r1, #1
    9c5c:	1affffb6 	bne	9b3c <_realloc_r+0xdc>
    9c60:	e514a008 	ldr	sl, [r4, #-8]
    9c64:	e048a00a 	sub	sl, r8, sl
    9c68:	e59a1004 	ldr	r1, [sl, #4]
    9c6c:	e3c11003 	bic	r1, r1, #3
    9c70:	eaffffae 	b	9b30 <_realloc_r+0xd0>
    9c74:	e1a01002 	mov	r1, r2
    9c78:	ebfffc59 	bl	8de4 <_malloc_r>
    9c7c:	e1a07000 	mov	r7, r0
    9c80:	e1a00007 	mov	r0, r7
    9c84:	e28dd00c 	add	sp, sp, #12
    9c88:	e8bd4ff0 	pop	{r4, r5, r6, r7, r8, r9, sl, fp, lr}
    9c8c:	e12fff1e 	bx	lr
    9c90:	e5903004 	ldr	r3, [r0, #4]
    9c94:	e3c33003 	bic	r3, r3, #3
    9c98:	e086c003 	add	ip, r6, r3
    9c9c:	e2850010 	add	r0, r5, #16
    9ca0:	e15c0000 	cmp	ip, r0
    9ca4:	aa0000b7 	bge	9f88 <_realloc_r+0x528>
    9ca8:	e3110001 	tst	r1, #1
    9cac:	1affffa2 	bne	9b3c <_realloc_r+0xdc>
    9cb0:	e514a008 	ldr	sl, [r4, #-8]
    9cb4:	e048a00a 	sub	sl, r8, sl
    9cb8:	e59a1004 	ldr	r1, [sl, #4]
    9cbc:	e3c11003 	bic	r1, r1, #3
    9cc0:	e0813003 	add	r3, r1, r3
    9cc4:	e0833006 	add	r3, r3, r6
    9cc8:	e1500003 	cmp	r0, r3
    9ccc:	caffff97 	bgt	9b30 <_realloc_r+0xd0>
    9cd0:	e1a0700a 	mov	r7, sl
    9cd4:	e59a100c 	ldr	r1, [sl, #12]
    9cd8:	e5b70008 	ldr	r0, [r7, #8]!
    9cdc:	e2462004 	sub	r2, r6, #4
    9ce0:	e3520024 	cmp	r2, #36	; 0x24
    9ce4:	e580100c 	str	r1, [r0, #12]
    9ce8:	e5810008 	str	r0, [r1, #8]
    9cec:	8a0000b9 	bhi	9fd8 <_realloc_r+0x578>
    9cf0:	e3520013 	cmp	r2, #19
    9cf4:	91a02007 	movls	r2, r7
    9cf8:	9a000014 	bls	9d50 <_realloc_r+0x2f0>
    9cfc:	e5941000 	ldr	r1, [r4]
    9d00:	e58a1008 	str	r1, [sl, #8]
    9d04:	e5941004 	ldr	r1, [r4, #4]
    9d08:	e352001b 	cmp	r2, #27
    9d0c:	e58a100c 	str	r1, [sl, #12]
    9d10:	92844008 	addls	r4, r4, #8
    9d14:	928a2010 	addls	r2, sl, #16
    9d18:	9a00000c 	bls	9d50 <_realloc_r+0x2f0>
    9d1c:	e3520024 	cmp	r2, #36	; 0x24
    9d20:	e5942008 	ldr	r2, [r4, #8]
    9d24:	e58a2010 	str	r2, [sl, #16]
    9d28:	e594200c 	ldr	r2, [r4, #12]
    9d2c:	e58a2014 	str	r2, [sl, #20]
    9d30:	05942010 	ldreq	r2, [r4, #16]
    9d34:	058a2018 	streq	r2, [sl, #24]
    9d38:	05941014 	ldreq	r1, [r4, #20]
    9d3c:	058a101c 	streq	r1, [sl, #28]
    9d40:	12844010 	addne	r4, r4, #16
    9d44:	128a2018 	addne	r2, sl, #24
    9d48:	028a2020 	addeq	r2, sl, #32
    9d4c:	02844018 	addeq	r4, r4, #24
    9d50:	e5941000 	ldr	r1, [r4]
    9d54:	e5821000 	str	r1, [r2]
    9d58:	e5941004 	ldr	r1, [r4, #4]
    9d5c:	e5821004 	str	r1, [r2, #4]
    9d60:	e5941008 	ldr	r1, [r4, #8]
    9d64:	e5821008 	str	r1, [r2, #8]
    9d68:	e0433005 	sub	r3, r3, r5
    9d6c:	e08a2005 	add	r2, sl, r5
    9d70:	e3833001 	orr	r3, r3, #1
    9d74:	e58b2008 	str	r2, [fp, #8]
    9d78:	e5823004 	str	r3, [r2, #4]
    9d7c:	e59a3004 	ldr	r3, [sl, #4]
    9d80:	e2033001 	and	r3, r3, #1
    9d84:	e1835005 	orr	r5, r3, r5
    9d88:	e1a00009 	mov	r0, r9
    9d8c:	e58a5004 	str	r5, [sl, #4]
    9d90:	ebffff31 	bl	9a5c <__malloc_unlock>
    9d94:	eaffff85 	b	9bb0 <_realloc_r+0x150>
    9d98:	e5173004 	ldr	r3, [r7, #-4]
    9d9c:	e3c33003 	bic	r3, r3, #3
    9da0:	e0866003 	add	r6, r6, r3
    9da4:	eaffff8a 	b	9bd4 <_realloc_r+0x174>
    9da8:	e5943000 	ldr	r3, [r4]
    9dac:	e5873000 	str	r3, [r7]
    9db0:	e5943004 	ldr	r3, [r4, #4]
    9db4:	e352001b 	cmp	r2, #27
    9db8:	e5873004 	str	r3, [r7, #4]
    9dbc:	92842008 	addls	r2, r4, #8
    9dc0:	92873008 	addls	r3, r7, #8
    9dc4:	9affff6e 	bls	9b84 <_realloc_r+0x124>
    9dc8:	e5943008 	ldr	r3, [r4, #8]
    9dcc:	e5873008 	str	r3, [r7, #8]
    9dd0:	e594300c 	ldr	r3, [r4, #12]
    9dd4:	e587300c 	str	r3, [r7, #12]
    9dd8:	e3520024 	cmp	r2, #36	; 0x24
    9ddc:	05943010 	ldreq	r3, [r4, #16]
    9de0:	05873010 	streq	r3, [r7, #16]
    9de4:	05941014 	ldreq	r1, [r4, #20]
    9de8:	12842010 	addne	r2, r4, #16
    9dec:	05871014 	streq	r1, [r7, #20]
    9df0:	12873010 	addne	r3, r7, #16
    9df4:	02842018 	addeq	r2, r4, #24
    9df8:	02873018 	addeq	r3, r7, #24
    9dfc:	eaffff60 	b	9b84 <_realloc_r+0x124>
    9e00:	e1a0700a 	mov	r7, sl
    9e04:	e59a100c 	ldr	r1, [sl, #12]
    9e08:	e5b70008 	ldr	r0, [r7, #8]!
    9e0c:	e2462004 	sub	r2, r6, #4
    9e10:	e3520024 	cmp	r2, #36	; 0x24
    9e14:	e580100c 	str	r1, [r0, #12]
    9e18:	e5810008 	str	r0, [r1, #8]
    9e1c:	8a000052 	bhi	9f6c <_realloc_r+0x50c>
    9e20:	e3520013 	cmp	r2, #19
    9e24:	91a02007 	movls	r2, r7
    9e28:	9a000014 	bls	9e80 <_realloc_r+0x420>
    9e2c:	e5941000 	ldr	r1, [r4]
    9e30:	e58a1008 	str	r1, [sl, #8]
    9e34:	e5941004 	ldr	r1, [r4, #4]
    9e38:	e352001b 	cmp	r2, #27
    9e3c:	e58a100c 	str	r1, [sl, #12]
    9e40:	92844008 	addls	r4, r4, #8
    9e44:	928a2010 	addls	r2, sl, #16
    9e48:	9a00000c 	bls	9e80 <_realloc_r+0x420>
    9e4c:	e3520024 	cmp	r2, #36	; 0x24
    9e50:	e5942008 	ldr	r2, [r4, #8]
    9e54:	e58a2010 	str	r2, [sl, #16]
    9e58:	e594200c 	ldr	r2, [r4, #12]
    9e5c:	e58a2014 	str	r2, [sl, #20]
    9e60:	05942010 	ldreq	r2, [r4, #16]
    9e64:	058a2018 	streq	r2, [sl, #24]
    9e68:	05941014 	ldreq	r1, [r4, #20]
    9e6c:	058a101c 	streq	r1, [sl, #28]
    9e70:	12844010 	addne	r4, r4, #16
    9e74:	128a2018 	addne	r2, sl, #24
    9e78:	028a2020 	addeq	r2, sl, #32
    9e7c:	02844018 	addeq	r4, r4, #24
    9e80:	e1a06003 	mov	r6, r3
    9e84:	e5943000 	ldr	r3, [r4]
    9e88:	e5823000 	str	r3, [r2]
    9e8c:	e5943004 	ldr	r3, [r4, #4]
    9e90:	e5823004 	str	r3, [r2, #4]
    9e94:	e5943008 	ldr	r3, [r4, #8]
    9e98:	e1a0800a 	mov	r8, sl
    9e9c:	e1a04007 	mov	r4, r7
    9ea0:	e5823008 	str	r3, [r2, #8]
    9ea4:	eaffff4a 	b	9bd4 <_realloc_r+0x174>
    9ea8:	e1a01004 	mov	r1, r4
    9eac:	ebfffe4c 	bl	97e4 <memmove>
    9eb0:	eaffff39 	b	9b9c <_realloc_r+0x13c>
    9eb4:	e1a0700a 	mov	r7, sl
    9eb8:	e593100c 	ldr	r1, [r3, #12]
    9ebc:	e5933008 	ldr	r3, [r3, #8]
    9ec0:	e583100c 	str	r1, [r3, #12]
    9ec4:	e5813008 	str	r3, [r1, #8]
    9ec8:	e2462004 	sub	r2, r6, #4
    9ecc:	e59a300c 	ldr	r3, [sl, #12]
    9ed0:	e5b71008 	ldr	r1, [r7, #8]!
    9ed4:	e3520024 	cmp	r2, #36	; 0x24
    9ed8:	e581300c 	str	r3, [r1, #12]
    9edc:	e5831008 	str	r1, [r3, #8]
    9ee0:	8a000035 	bhi	9fbc <_realloc_r+0x55c>
    9ee4:	e3520013 	cmp	r2, #19
    9ee8:	91a03007 	movls	r3, r7
    9eec:	9a000014 	bls	9f44 <_realloc_r+0x4e4>
    9ef0:	e5943000 	ldr	r3, [r4]
    9ef4:	e58a3008 	str	r3, [sl, #8]
    9ef8:	e5943004 	ldr	r3, [r4, #4]
    9efc:	e352001b 	cmp	r2, #27
    9f00:	e58a300c 	str	r3, [sl, #12]
    9f04:	92844008 	addls	r4, r4, #8
    9f08:	928a3010 	addls	r3, sl, #16
    9f0c:	9a00000c 	bls	9f44 <_realloc_r+0x4e4>
    9f10:	e5943008 	ldr	r3, [r4, #8]
    9f14:	e58a3010 	str	r3, [sl, #16]
    9f18:	e594300c 	ldr	r3, [r4, #12]
    9f1c:	e58a3014 	str	r3, [sl, #20]
    9f20:	e3520024 	cmp	r2, #36	; 0x24
    9f24:	05943010 	ldreq	r3, [r4, #16]
    9f28:	058a3018 	streq	r3, [sl, #24]
    9f2c:	05942014 	ldreq	r2, [r4, #20]
    9f30:	058a201c 	streq	r2, [sl, #28]
    9f34:	12844010 	addne	r4, r4, #16
    9f38:	128a3018 	addne	r3, sl, #24
    9f3c:	028a3020 	addeq	r3, sl, #32
    9f40:	02844018 	addeq	r4, r4, #24
    9f44:	e5942000 	ldr	r2, [r4]
    9f48:	e5832000 	str	r2, [r3]
    9f4c:	e5942004 	ldr	r2, [r4, #4]
    9f50:	e5832004 	str	r2, [r3, #4]
    9f54:	e5942008 	ldr	r2, [r4, #8]
    9f58:	e1a0600c 	mov	r6, ip
    9f5c:	e1a0800a 	mov	r8, sl
    9f60:	e1a04007 	mov	r4, r7
    9f64:	e5832008 	str	r2, [r3, #8]
    9f68:	eaffff19 	b	9bd4 <_realloc_r+0x174>
    9f6c:	e1a01004 	mov	r1, r4
    9f70:	e1a00007 	mov	r0, r7
    9f74:	e1a06003 	mov	r6, r3
    9f78:	e1a0800a 	mov	r8, sl
    9f7c:	ebfffe18 	bl	97e4 <memmove>
    9f80:	e1a04007 	mov	r4, r7
    9f84:	eaffff12 	b	9bd4 <_realloc_r+0x174>
    9f88:	e04c3005 	sub	r3, ip, r5
    9f8c:	e0888005 	add	r8, r8, r5
    9f90:	e3833001 	orr	r3, r3, #1
    9f94:	e58b8008 	str	r8, [fp, #8]
    9f98:	e5883004 	str	r3, [r8, #4]
    9f9c:	e5143004 	ldr	r3, [r4, #-4]
    9fa0:	e2033001 	and	r3, r3, #1
    9fa4:	e1835005 	orr	r5, r3, r5
    9fa8:	e1a00009 	mov	r0, r9
    9fac:	e5045004 	str	r5, [r4, #-4]
    9fb0:	e1a07004 	mov	r7, r4
    9fb4:	ebfffea8 	bl	9a5c <__malloc_unlock>
    9fb8:	eafffefc 	b	9bb0 <_realloc_r+0x150>
    9fbc:	e1a01004 	mov	r1, r4
    9fc0:	e1a00007 	mov	r0, r7
    9fc4:	e1a0600c 	mov	r6, ip
    9fc8:	e1a0800a 	mov	r8, sl
    9fcc:	ebfffe04 	bl	97e4 <memmove>
    9fd0:	e1a04007 	mov	r4, r7
    9fd4:	eafffefe 	b	9bd4 <_realloc_r+0x174>
    9fd8:	e1a01004 	mov	r1, r4
    9fdc:	e1a00007 	mov	r0, r7
    9fe0:	e58d3004 	str	r3, [sp, #4]
    9fe4:	ebfffdfe 	bl	97e4 <memmove>
    9fe8:	e59d3004 	ldr	r3, [sp, #4]
    9fec:	eaffff5d 	b	9d68 <_realloc_r+0x308>
    9ff0:	0000b598 	muleq	r0, r8, r5

00009ff4 <_sbrk_r>:
    9ff4:	e3a02000 	mov	r2, #0
    9ff8:	e92d4070 	push	{r4, r5, r6, lr}
    9ffc:	e59f5030 	ldr	r5, [pc, #48]	; a034 <_sbrk_r+0x40>
    a000:	e1a04000 	mov	r4, r0
    a004:	e1a00001 	mov	r0, r1
    a008:	e5852000 	str	r2, [r5]
    a00c:	ebfff8ad 	bl	82c8 <_sbrk>
    a010:	e3700001 	cmn	r0, #1
    a014:	0a000001 	beq	a020 <_sbrk_r+0x2c>
    a018:	e8bd4070 	pop	{r4, r5, r6, lr}
    a01c:	e12fff1e 	bx	lr
    a020:	e5953000 	ldr	r3, [r5]
    a024:	e3530000 	cmp	r3, #0
    a028:	15843000 	strne	r3, [r4]
    a02c:	e8bd4070 	pop	{r4, r5, r6, lr}
    a030:	e12fff1e 	bx	lr
    a034:	0000b9dc 	ldrdeq	fp, [r0], -ip

0000a038 <__sread>:
    a038:	e92d4010 	push	{r4, lr}
    a03c:	e1a04001 	mov	r4, r1
    a040:	e1d110fe 	ldrsh	r1, [r1, #14]
    a044:	eb00035c 	bl	adbc <_read_r>
    a048:	e3500000 	cmp	r0, #0
    a04c:	a5943050 	ldrge	r3, [r4, #80]	; 0x50
    a050:	b1d430bc 	ldrhlt	r3, [r4, #12]
    a054:	a0833000 	addge	r3, r3, r0
    a058:	b3c33a01 	biclt	r3, r3, #4096	; 0x1000
    a05c:	a5843050 	strge	r3, [r4, #80]	; 0x50
    a060:	b1c430bc 	strhlt	r3, [r4, #12]
    a064:	e8bd4010 	pop	{r4, lr}
    a068:	e12fff1e 	bx	lr

0000a06c <__seofread>:
    a06c:	e3a00000 	mov	r0, #0
    a070:	e12fff1e 	bx	lr

0000a074 <__swrite>:
    a074:	e92d41f0 	push	{r4, r5, r6, r7, r8, lr}
    a078:	e1a04001 	mov	r4, r1
    a07c:	e1d110fc 	ldrsh	r1, [r1, #12]
    a080:	e3110c01 	tst	r1, #256	; 0x100
    a084:	e1a05000 	mov	r5, r0
    a088:	e1a06002 	mov	r6, r2
    a08c:	e1a07003 	mov	r7, r3
    a090:	1a000008 	bne	a0b8 <__swrite+0x44>
    a094:	e3c11a01 	bic	r1, r1, #4096	; 0x1000
    a098:	e1c410bc 	strh	r1, [r4, #12]
    a09c:	e1a03007 	mov	r3, r7
    a0a0:	e1a02006 	mov	r2, r6
    a0a4:	e1a00005 	mov	r0, r5
    a0a8:	e1d410fe 	ldrsh	r1, [r4, #14]
    a0ac:	eb000018 	bl	a114 <_write_r>
    a0b0:	e8bd41f0 	pop	{r4, r5, r6, r7, r8, lr}
    a0b4:	e12fff1e 	bx	lr
    a0b8:	e1d410fe 	ldrsh	r1, [r4, #14]
    a0bc:	e3a03002 	mov	r3, #2
    a0c0:	e3a02000 	mov	r2, #0
    a0c4:	eb0002b1 	bl	ab90 <_lseek_r>
    a0c8:	e1d410fc 	ldrsh	r1, [r4, #12]
    a0cc:	eafffff0 	b	a094 <__swrite+0x20>

0000a0d0 <__sseek>:
    a0d0:	e92d4010 	push	{r4, lr}
    a0d4:	e1a04001 	mov	r4, r1
    a0d8:	e1d110fe 	ldrsh	r1, [r1, #14]
    a0dc:	eb0002ab 	bl	ab90 <_lseek_r>
    a0e0:	e1d430bc 	ldrh	r3, [r4, #12]
    a0e4:	e3700001 	cmn	r0, #1
    a0e8:	03c33a01 	biceq	r3, r3, #4096	; 0x1000
    a0ec:	13833a01 	orrne	r3, r3, #4096	; 0x1000
    a0f0:	15840050 	strne	r0, [r4, #80]	; 0x50
    a0f4:	e1c430bc 	strh	r3, [r4, #12]
    a0f8:	e8bd4010 	pop	{r4, lr}
    a0fc:	e12fff1e 	bx	lr

0000a100 <__sclose>:
    a100:	e92d4010 	push	{r4, lr}
    a104:	e1d110fe 	ldrsh	r1, [r1, #14]
    a108:	eb00006e 	bl	a2c8 <_close_r>
    a10c:	e8bd4010 	pop	{r4, lr}
    a110:	e12fff1e 	bx	lr

0000a114 <_write_r>:
    a114:	e92d4070 	push	{r4, r5, r6, lr}
    a118:	e1a0e001 	mov	lr, r1
    a11c:	e1a01002 	mov	r1, r2
    a120:	e3a02000 	mov	r2, #0
    a124:	e59f502c 	ldr	r5, [pc, #44]	; a158 <_write_r+0x44>
    a128:	e1a04000 	mov	r4, r0
    a12c:	e5852000 	str	r2, [r5]
    a130:	e1a0000e 	mov	r0, lr
    a134:	e1a02003 	mov	r2, r3
    a138:	ebfff822 	bl	81c8 <_write>
    a13c:	e3700001 	cmn	r0, #1
    a140:	1a000002 	bne	a150 <_write_r+0x3c>
    a144:	e5953000 	ldr	r3, [r5]
    a148:	e3530000 	cmp	r3, #0
    a14c:	15843000 	strne	r3, [r4]
    a150:	e8bd4070 	pop	{r4, r5, r6, lr}
    a154:	e12fff1e 	bx	lr
    a158:	0000b9dc 	ldrdeq	fp, [r0], -ip

0000a15c <__swsetup_r>:
    a15c:	e59f3160 	ldr	r3, [pc, #352]	; a2c4 <__swsetup_r+0x168>
    a160:	e5933000 	ldr	r3, [r3]
    a164:	e3530000 	cmp	r3, #0
    a168:	e92d4070 	push	{r4, r5, r6, lr}
    a16c:	e1a05000 	mov	r5, r0
    a170:	e1a04001 	mov	r4, r1
    a174:	0a000002 	beq	a184 <__swsetup_r+0x28>
    a178:	e5932038 	ldr	r2, [r3, #56]	; 0x38
    a17c:	e3520000 	cmp	r2, #0
    a180:	0a000020 	beq	a208 <__swsetup_r+0xac>
    a184:	e1d420fc 	ldrsh	r2, [r4, #12]
    a188:	e1a03802 	lsl	r3, r2, #16
    a18c:	e3120008 	tst	r2, #8
    a190:	e1a03823 	lsr	r3, r3, #16
    a194:	0a00001e 	beq	a214 <__swsetup_r+0xb8>
    a198:	e5941010 	ldr	r1, [r4, #16]
    a19c:	e3510000 	cmp	r1, #0
    a1a0:	0a000026 	beq	a240 <__swsetup_r+0xe4>
    a1a4:	e2130001 	ands	r0, r3, #1
    a1a8:	1a000007 	bne	a1cc <__swsetup_r+0x70>
    a1ac:	e3130002 	tst	r3, #2
    a1b0:	05940014 	ldreq	r0, [r4, #20]
    a1b4:	e3510000 	cmp	r1, #0
    a1b8:	e5840008 	str	r0, [r4, #8]
    a1bc:	13a00000 	movne	r0, #0
    a1c0:	0a000009 	beq	a1ec <__swsetup_r+0x90>
    a1c4:	e8bd4070 	pop	{r4, r5, r6, lr}
    a1c8:	e12fff1e 	bx	lr
    a1cc:	e3a0c000 	mov	ip, #0
    a1d0:	e5940014 	ldr	r0, [r4, #20]
    a1d4:	e3510000 	cmp	r1, #0
    a1d8:	e2600000 	rsb	r0, r0, #0
    a1dc:	e5840018 	str	r0, [r4, #24]
    a1e0:	e584c008 	str	ip, [r4, #8]
    a1e4:	13a00000 	movne	r0, #0
    a1e8:	1afffff5 	bne	a1c4 <__swsetup_r+0x68>
    a1ec:	e3130080 	tst	r3, #128	; 0x80
    a1f0:	13822040 	orrne	r2, r2, #64	; 0x40
    a1f4:	13e00000 	mvnne	r0, #0
    a1f8:	01a00001 	moveq	r0, r1
    a1fc:	11c420bc 	strhne	r2, [r4, #12]
    a200:	e8bd4070 	pop	{r4, r5, r6, lr}
    a204:	e12fff1e 	bx	lr
    a208:	e1a00003 	mov	r0, r3
    a20c:	ebfff96f 	bl	87d0 <__sinit>
    a210:	eaffffdb 	b	a184 <__swsetup_r+0x28>
    a214:	e3130010 	tst	r3, #16
    a218:	0a000023 	beq	a2ac <__swsetup_r+0x150>
    a21c:	e3130004 	tst	r3, #4
    a220:	1a000011 	bne	a26c <__swsetup_r+0x110>
    a224:	e5941010 	ldr	r1, [r4, #16]
    a228:	e3822008 	orr	r2, r2, #8
    a22c:	e1a03802 	lsl	r3, r2, #16
    a230:	e3510000 	cmp	r1, #0
    a234:	e1c420bc 	strh	r2, [r4, #12]
    a238:	e1a03823 	lsr	r3, r3, #16
    a23c:	1affffd8 	bne	a1a4 <__swsetup_r+0x48>
    a240:	e2030d0a 	and	r0, r3, #640	; 0x280
    a244:	e3500c02 	cmp	r0, #512	; 0x200
    a248:	0affffd5 	beq	a1a4 <__swsetup_r+0x48>
    a24c:	e1a01004 	mov	r1, r4
    a250:	e1a00005 	mov	r0, r5
    a254:	eb00025f 	bl	abd8 <__smakebuf_r>
    a258:	e1d420fc 	ldrsh	r2, [r4, #12]
    a25c:	e1a03802 	lsl	r3, r2, #16
    a260:	e5941010 	ldr	r1, [r4, #16]
    a264:	e1a03823 	lsr	r3, r3, #16
    a268:	eaffffcd 	b	a1a4 <__swsetup_r+0x48>
    a26c:	e5941030 	ldr	r1, [r4, #48]	; 0x30
    a270:	e3510000 	cmp	r1, #0
    a274:	0a000007 	beq	a298 <__swsetup_r+0x13c>
    a278:	e2843040 	add	r3, r4, #64	; 0x40
    a27c:	e1510003 	cmp	r1, r3
    a280:	0a000002 	beq	a290 <__swsetup_r+0x134>
    a284:	e1a00005 	mov	r0, r5
    a288:	eb000185 	bl	a8a4 <_free_r>
    a28c:	e1d420fc 	ldrsh	r2, [r4, #12]
    a290:	e3a03000 	mov	r3, #0
    a294:	e5843030 	str	r3, [r4, #48]	; 0x30
    a298:	e3a03000 	mov	r3, #0
    a29c:	e5941010 	ldr	r1, [r4, #16]
    a2a0:	e3c22024 	bic	r2, r2, #36	; 0x24
    a2a4:	e884000a 	stm	r4, {r1, r3}
    a2a8:	eaffffde 	b	a228 <__swsetup_r+0xcc>
    a2ac:	e3a03009 	mov	r3, #9
    a2b0:	e3822040 	orr	r2, r2, #64	; 0x40
    a2b4:	e5853000 	str	r3, [r5]
    a2b8:	e3e00000 	mvn	r0, #0
    a2bc:	e1c420bc 	strh	r2, [r4, #12]
    a2c0:	eaffffbf 	b	a1c4 <__swsetup_r+0x68>
    a2c4:	0000b168 	andeq	fp, r0, r8, ror #2

0000a2c8 <_close_r>:
    a2c8:	e3a02000 	mov	r2, #0
    a2cc:	e92d4070 	push	{r4, r5, r6, lr}
    a2d0:	e59f5028 	ldr	r5, [pc, #40]	; a300 <_close_r+0x38>
    a2d4:	e1a04000 	mov	r4, r0
    a2d8:	e1a00001 	mov	r0, r1
    a2dc:	e5852000 	str	r2, [r5]
    a2e0:	ebfff7af 	bl	81a4 <_close>
    a2e4:	e3700001 	cmn	r0, #1
    a2e8:	1a000002 	bne	a2f8 <_close_r+0x30>
    a2ec:	e5953000 	ldr	r3, [r5]
    a2f0:	e3530000 	cmp	r3, #0
    a2f4:	15843000 	strne	r3, [r4]
    a2f8:	e8bd4070 	pop	{r4, r5, r6, lr}
    a2fc:	e12fff1e 	bx	lr
    a300:	0000b9dc 	ldrdeq	fp, [r0], -ip

0000a304 <_fclose_r.part.0>:
    a304:	e92d4070 	push	{r4, r5, r6, lr}
    a308:	e1a04001 	mov	r4, r1
    a30c:	e1a06000 	mov	r6, r0
    a310:	eb00005a 	bl	a480 <__sflush_r>
    a314:	e594302c 	ldr	r3, [r4, #44]	; 0x2c
    a318:	e3530000 	cmp	r3, #0
    a31c:	e1a05000 	mov	r5, r0
    a320:	0a000005 	beq	a33c <_fclose_r.part.0+0x38>
    a324:	e1a00006 	mov	r0, r6
    a328:	e594101c 	ldr	r1, [r4, #28]
    a32c:	e1a0e00f 	mov	lr, pc
    a330:	e12fff13 	bx	r3
    a334:	e3500000 	cmp	r0, #0
    a338:	b3e05000 	mvnlt	r5, #0
    a33c:	e1d430bc 	ldrh	r3, [r4, #12]
    a340:	e3130080 	tst	r3, #128	; 0x80
    a344:	1a000016 	bne	a3a4 <_fclose_r.part.0+0xa0>
    a348:	e5941030 	ldr	r1, [r4, #48]	; 0x30
    a34c:	e3510000 	cmp	r1, #0
    a350:	0a000005 	beq	a36c <_fclose_r.part.0+0x68>
    a354:	e2843040 	add	r3, r4, #64	; 0x40
    a358:	e1510003 	cmp	r1, r3
    a35c:	11a00006 	movne	r0, r6
    a360:	1b00014f 	blne	a8a4 <_free_r>
    a364:	e3a03000 	mov	r3, #0
    a368:	e5843030 	str	r3, [r4, #48]	; 0x30
    a36c:	e5941044 	ldr	r1, [r4, #68]	; 0x44
    a370:	e3510000 	cmp	r1, #0
    a374:	0a000003 	beq	a388 <_fclose_r.part.0+0x84>
    a378:	e1a00006 	mov	r0, r6
    a37c:	eb000148 	bl	a8a4 <_free_r>
    a380:	e3a03000 	mov	r3, #0
    a384:	e5843044 	str	r3, [r4, #68]	; 0x44
    a388:	ebfff914 	bl	87e0 <__sfp_lock_acquire>
    a38c:	e3a03000 	mov	r3, #0
    a390:	e1c430bc 	strh	r3, [r4, #12]
    a394:	ebfff912 	bl	87e4 <__sfp_lock_release>
    a398:	e1a00005 	mov	r0, r5
    a39c:	e8bd4070 	pop	{r4, r5, r6, lr}
    a3a0:	e12fff1e 	bx	lr
    a3a4:	e1a00006 	mov	r0, r6
    a3a8:	e5941010 	ldr	r1, [r4, #16]
    a3ac:	eb00013c 	bl	a8a4 <_free_r>
    a3b0:	eaffffe4 	b	a348 <_fclose_r.part.0+0x44>

0000a3b4 <_fclose_r>:
    a3b4:	e92d4070 	push	{r4, r5, r6, lr}
    a3b8:	e2514000 	subs	r4, r1, #0
    a3bc:	0a000008 	beq	a3e4 <_fclose_r+0x30>
    a3c0:	e3500000 	cmp	r0, #0
    a3c4:	e1a05000 	mov	r5, r0
    a3c8:	0a000002 	beq	a3d8 <_fclose_r+0x24>
    a3cc:	e5903038 	ldr	r3, [r0, #56]	; 0x38
    a3d0:	e3530000 	cmp	r3, #0
    a3d4:	0a000009 	beq	a400 <_fclose_r+0x4c>
    a3d8:	e1d430fc 	ldrsh	r3, [r4, #12]
    a3dc:	e3530000 	cmp	r3, #0
    a3e0:	1a000002 	bne	a3f0 <_fclose_r+0x3c>
    a3e4:	e3a00000 	mov	r0, #0
    a3e8:	e8bd4070 	pop	{r4, r5, r6, lr}
    a3ec:	e12fff1e 	bx	lr
    a3f0:	e1a01004 	mov	r1, r4
    a3f4:	e1a00005 	mov	r0, r5
    a3f8:	e8bd4070 	pop	{r4, r5, r6, lr}
    a3fc:	eaffffc0 	b	a304 <_fclose_r.part.0>
    a400:	ebfff8f2 	bl	87d0 <__sinit>
    a404:	e1d430fc 	ldrsh	r3, [r4, #12]
    a408:	e3530000 	cmp	r3, #0
    a40c:	0afffff4 	beq	a3e4 <_fclose_r+0x30>
    a410:	eafffff6 	b	a3f0 <_fclose_r+0x3c>

0000a414 <fclose>:
    a414:	e92d4070 	push	{r4, r5, r6, lr}
    a418:	e2504000 	subs	r4, r0, #0
    a41c:	0a000009 	beq	a448 <fclose+0x34>
    a420:	e59f3054 	ldr	r3, [pc, #84]	; a47c <fclose+0x68>
    a424:	e5935000 	ldr	r5, [r3]
    a428:	e3550000 	cmp	r5, #0
    a42c:	0a000002 	beq	a43c <fclose+0x28>
    a430:	e5953038 	ldr	r3, [r5, #56]	; 0x38
    a434:	e3530000 	cmp	r3, #0
    a438:	0a000009 	beq	a464 <fclose+0x50>
    a43c:	e1d430fc 	ldrsh	r3, [r4, #12]
    a440:	e3530000 	cmp	r3, #0
    a444:	1a000002 	bne	a454 <fclose+0x40>
    a448:	e3a00000 	mov	r0, #0
    a44c:	e8bd4070 	pop	{r4, r5, r6, lr}
    a450:	e12fff1e 	bx	lr
    a454:	e1a01004 	mov	r1, r4
    a458:	e1a00005 	mov	r0, r5
    a45c:	e8bd4070 	pop	{r4, r5, r6, lr}
    a460:	eaffffa7 	b	a304 <_fclose_r.part.0>
    a464:	e1a00005 	mov	r0, r5
    a468:	ebfff8d8 	bl	87d0 <__sinit>
    a46c:	e1d430fc 	ldrsh	r3, [r4, #12]
    a470:	e3530000 	cmp	r3, #0
    a474:	0afffff3 	beq	a448 <fclose+0x34>
    a478:	eafffff5 	b	a454 <fclose+0x40>
    a47c:	0000b168 	andeq	fp, r0, r8, ror #2

0000a480 <__sflush_r>:
    a480:	e1d120fc 	ldrsh	r2, [r1, #12]
    a484:	e3120008 	tst	r2, #8
    a488:	e92d41f0 	push	{r4, r5, r6, r7, r8, lr}
    a48c:	e1a04001 	mov	r4, r1
    a490:	e1a07000 	mov	r7, r0
    a494:	1a000047 	bne	a5b8 <__sflush_r+0x138>
    a498:	e5913004 	ldr	r3, [r1, #4]
    a49c:	e3822b02 	orr	r2, r2, #2048	; 0x800
    a4a0:	e3530000 	cmp	r3, #0
    a4a4:	e1c120bc 	strh	r2, [r1, #12]
    a4a8:	da000064 	ble	a640 <__sflush_r+0x1c0>
    a4ac:	e5946028 	ldr	r6, [r4, #40]	; 0x28
    a4b0:	e3560000 	cmp	r6, #0
    a4b4:	0a000064 	beq	a64c <__sflush_r+0x1cc>
    a4b8:	e3a03000 	mov	r3, #0
    a4bc:	e5978000 	ldr	r8, [r7]
    a4c0:	e2125a01 	ands	r5, r2, #4096	; 0x1000
    a4c4:	e5873000 	str	r3, [r7]
    a4c8:	e1a03802 	lsl	r3, r2, #16
    a4cc:	e1a03823 	lsr	r3, r3, #16
    a4d0:	1a000060 	bne	a658 <__sflush_r+0x1d8>
    a4d4:	e3a03001 	mov	r3, #1
    a4d8:	e1a02005 	mov	r2, r5
    a4dc:	e1a00007 	mov	r0, r7
    a4e0:	e594101c 	ldr	r1, [r4, #28]
    a4e4:	e1a0e00f 	mov	lr, pc
    a4e8:	e12fff16 	bx	r6
    a4ec:	e3700001 	cmn	r0, #1
    a4f0:	0a000064 	beq	a688 <__sflush_r+0x208>
    a4f4:	e1d430bc 	ldrh	r3, [r4, #12]
    a4f8:	e5946028 	ldr	r6, [r4, #40]	; 0x28
    a4fc:	e3130004 	tst	r3, #4
    a500:	0a000005 	beq	a51c <__sflush_r+0x9c>
    a504:	e5943030 	ldr	r3, [r4, #48]	; 0x30
    a508:	e3530000 	cmp	r3, #0
    a50c:	e5943004 	ldr	r3, [r4, #4]
    a510:	e0400003 	sub	r0, r0, r3
    a514:	1594303c 	ldrne	r3, [r4, #60]	; 0x3c
    a518:	10400003 	subne	r0, r0, r3
    a51c:	e1a02000 	mov	r2, r0
    a520:	e3a03000 	mov	r3, #0
    a524:	e1a00007 	mov	r0, r7
    a528:	e594101c 	ldr	r1, [r4, #28]
    a52c:	e1a0e00f 	mov	lr, pc
    a530:	e12fff16 	bx	r6
    a534:	e3700001 	cmn	r0, #1
    a538:	1a000048 	bne	a660 <__sflush_r+0x1e0>
    a53c:	e5972000 	ldr	r2, [r7]
    a540:	e352001d 	cmp	r2, #29
    a544:	13520000 	cmpne	r2, #0
    a548:	03a03001 	moveq	r3, #1
    a54c:	13a03000 	movne	r3, #0
    a550:	e3520016 	cmp	r2, #22
    a554:	03833001 	orreq	r3, r3, #1
    a558:	e3530000 	cmp	r3, #0
    a55c:	0a000051 	beq	a6a8 <__sflush_r+0x228>
    a560:	e3a03000 	mov	r3, #0
    a564:	e5843004 	str	r3, [r4, #4]
    a568:	e1d430fc 	ldrsh	r3, [r4, #12]
    a56c:	e3c33b02 	bic	r3, r3, #2048	; 0x800
    a570:	e1c430bc 	strh	r3, [r4, #12]
    a574:	e3130a01 	tst	r3, #4096	; 0x1000
    a578:	e5943010 	ldr	r3, [r4, #16]
    a57c:	e5843000 	str	r3, [r4]
    a580:	1a00004c 	bne	a6b8 <__sflush_r+0x238>
    a584:	e5941030 	ldr	r1, [r4, #48]	; 0x30
    a588:	e3510000 	cmp	r1, #0
    a58c:	e5878000 	str	r8, [r7]
    a590:	0a00002d 	beq	a64c <__sflush_r+0x1cc>
    a594:	e2843040 	add	r3, r4, #64	; 0x40
    a598:	e1510003 	cmp	r1, r3
    a59c:	11a00007 	movne	r0, r7
    a5a0:	1b0000bf 	blne	a8a4 <_free_r>
    a5a4:	e3a03000 	mov	r3, #0
    a5a8:	e1a00003 	mov	r0, r3
    a5ac:	e5843030 	str	r3, [r4, #48]	; 0x30
    a5b0:	e8bd41f0 	pop	{r4, r5, r6, r7, r8, lr}
    a5b4:	e12fff1e 	bx	lr
    a5b8:	e5916010 	ldr	r6, [r1, #16]
    a5bc:	e3560000 	cmp	r6, #0
    a5c0:	0a000021 	beq	a64c <__sflush_r+0x1cc>
    a5c4:	e1a03802 	lsl	r3, r2, #16
    a5c8:	e1a03823 	lsr	r3, r3, #16
    a5cc:	e3130003 	tst	r3, #3
    a5d0:	13a03000 	movne	r3, #0
    a5d4:	e5915000 	ldr	r5, [r1]
    a5d8:	05913014 	ldreq	r3, [r1, #20]
    a5dc:	e0455006 	sub	r5, r5, r6
    a5e0:	e3550000 	cmp	r5, #0
    a5e4:	e5816000 	str	r6, [r1]
    a5e8:	e5813008 	str	r3, [r1, #8]
    a5ec:	ca000003 	bgt	a600 <__sflush_r+0x180>
    a5f0:	ea000015 	b	a64c <__sflush_r+0x1cc>
    a5f4:	e3550000 	cmp	r5, #0
    a5f8:	e0866000 	add	r6, r6, r0
    a5fc:	da000012 	ble	a64c <__sflush_r+0x1cc>
    a600:	e1a03005 	mov	r3, r5
    a604:	e1a02006 	mov	r2, r6
    a608:	e1a00007 	mov	r0, r7
    a60c:	e594101c 	ldr	r1, [r4, #28]
    a610:	e594c024 	ldr	ip, [r4, #36]	; 0x24
    a614:	e1a0e00f 	mov	lr, pc
    a618:	e12fff1c 	bx	ip
    a61c:	e3500000 	cmp	r0, #0
    a620:	e0455000 	sub	r5, r5, r0
    a624:	cafffff2 	bgt	a5f4 <__sflush_r+0x174>
    a628:	e1d430bc 	ldrh	r3, [r4, #12]
    a62c:	e3833040 	orr	r3, r3, #64	; 0x40
    a630:	e3e00000 	mvn	r0, #0
    a634:	e1c430bc 	strh	r3, [r4, #12]
    a638:	e8bd41f0 	pop	{r4, r5, r6, r7, r8, lr}
    a63c:	e12fff1e 	bx	lr
    a640:	e591303c 	ldr	r3, [r1, #60]	; 0x3c
    a644:	e3530000 	cmp	r3, #0
    a648:	caffff97 	bgt	a4ac <__sflush_r+0x2c>
    a64c:	e3a00000 	mov	r0, #0
    a650:	e8bd41f0 	pop	{r4, r5, r6, r7, r8, lr}
    a654:	e12fff1e 	bx	lr
    a658:	e5940050 	ldr	r0, [r4, #80]	; 0x50
    a65c:	eaffffa6 	b	a4fc <__sflush_r+0x7c>
    a660:	e1d430fc 	ldrsh	r3, [r4, #12]
    a664:	e3c33b02 	bic	r3, r3, #2048	; 0x800
    a668:	e1c430bc 	strh	r3, [r4, #12]
    a66c:	e3130a01 	tst	r3, #4096	; 0x1000
    a670:	e3a03000 	mov	r3, #0
    a674:	e5942010 	ldr	r2, [r4, #16]
    a678:	e884000c 	stm	r4, {r2, r3}
    a67c:	0affffc0 	beq	a584 <__sflush_r+0x104>
    a680:	e5840050 	str	r0, [r4, #80]	; 0x50
    a684:	eaffffbe 	b	a584 <__sflush_r+0x104>
    a688:	e5973000 	ldr	r3, [r7]
    a68c:	e3530000 	cmp	r3, #0
    a690:	0affff97 	beq	a4f4 <__sflush_r+0x74>
    a694:	e3530016 	cmp	r3, #22
    a698:	1353001d 	cmpne	r3, #29
    a69c:	01a00005 	moveq	r0, r5
    a6a0:	05878000 	streq	r8, [r7]
    a6a4:	0affffe9 	beq	a650 <__sflush_r+0x1d0>
    a6a8:	e1d430bc 	ldrh	r3, [r4, #12]
    a6ac:	e3833040 	orr	r3, r3, #64	; 0x40
    a6b0:	e1c430bc 	strh	r3, [r4, #12]
    a6b4:	eaffffe5 	b	a650 <__sflush_r+0x1d0>
    a6b8:	e3520000 	cmp	r2, #0
    a6bc:	1affffb0 	bne	a584 <__sflush_r+0x104>
    a6c0:	eaffffee 	b	a680 <__sflush_r+0x200>

0000a6c4 <_fflush_r>:
    a6c4:	e92d4070 	push	{r4, r5, r6, lr}
    a6c8:	e2504000 	subs	r4, r0, #0
    a6cc:	e1a05001 	mov	r5, r1
    a6d0:	0a000002 	beq	a6e0 <_fflush_r+0x1c>
    a6d4:	e5943038 	ldr	r3, [r4, #56]	; 0x38
    a6d8:	e3530000 	cmp	r3, #0
    a6dc:	0a000004 	beq	a6f4 <_fflush_r+0x30>
    a6e0:	e1d500fc 	ldrsh	r0, [r5, #12]
    a6e4:	e3500000 	cmp	r0, #0
    a6e8:	1a000005 	bne	a704 <_fflush_r+0x40>
    a6ec:	e8bd4070 	pop	{r4, r5, r6, lr}
    a6f0:	e12fff1e 	bx	lr
    a6f4:	ebfff835 	bl	87d0 <__sinit>
    a6f8:	e1d500fc 	ldrsh	r0, [r5, #12]
    a6fc:	e3500000 	cmp	r0, #0
    a700:	0afffff9 	beq	a6ec <_fflush_r+0x28>
    a704:	e1a01005 	mov	r1, r5
    a708:	e1a00004 	mov	r0, r4
    a70c:	e8bd4070 	pop	{r4, r5, r6, lr}
    a710:	eaffff5a 	b	a480 <__sflush_r>

0000a714 <fflush>:
    a714:	e92d4070 	push	{r4, r5, r6, lr}
    a718:	e2504000 	subs	r4, r0, #0
    a71c:	0a000017 	beq	a780 <fflush+0x6c>
    a720:	e59f3070 	ldr	r3, [pc, #112]	; a798 <fflush+0x84>
    a724:	e5935000 	ldr	r5, [r3]
    a728:	e3550000 	cmp	r5, #0
    a72c:	0a000002 	beq	a73c <fflush+0x28>
    a730:	e5953038 	ldr	r3, [r5, #56]	; 0x38
    a734:	e3530000 	cmp	r3, #0
    a738:	0a000009 	beq	a764 <fflush+0x50>
    a73c:	e1d430fc 	ldrsh	r3, [r4, #12]
    a740:	e3530000 	cmp	r3, #0
    a744:	01a00003 	moveq	r0, r3
    a748:	1a000001 	bne	a754 <fflush+0x40>
    a74c:	e8bd4070 	pop	{r4, r5, r6, lr}
    a750:	e12fff1e 	bx	lr
    a754:	e1a01004 	mov	r1, r4
    a758:	e1a00005 	mov	r0, r5
    a75c:	e8bd4070 	pop	{r4, r5, r6, lr}
    a760:	eaffff46 	b	a480 <__sflush_r>
    a764:	e1a00005 	mov	r0, r5
    a768:	ebfff818 	bl	87d0 <__sinit>
    a76c:	e1d430fc 	ldrsh	r3, [r4, #12]
    a770:	e3530000 	cmp	r3, #0
    a774:	01a00003 	moveq	r0, r3
    a778:	0afffff3 	beq	a74c <fflush+0x38>
    a77c:	eafffff4 	b	a754 <fflush+0x40>
    a780:	e59f3014 	ldr	r3, [pc, #20]	; a79c <fflush+0x88>
    a784:	e59f1014 	ldr	r1, [pc, #20]	; a7a0 <fflush+0x8c>
    a788:	e5930000 	ldr	r0, [r3]
    a78c:	ebfff976 	bl	8d6c <_fwalk_reent>
    a790:	e8bd4070 	pop	{r4, r5, r6, lr}
    a794:	e12fff1e 	bx	lr
    a798:	0000b168 	andeq	fp, r0, r8, ror #2
    a79c:	0000b154 	andeq	fp, r0, r4, asr r1
    a7a0:	0000a6c4 	andeq	sl, r0, r4, asr #13

0000a7a4 <_malloc_trim_r>:
    a7a4:	e92d41f0 	push	{r4, r5, r6, r7, r8, lr}
    a7a8:	e1a04001 	mov	r4, r1
    a7ac:	e59f70e4 	ldr	r7, [pc, #228]	; a898 <_malloc_trim_r+0xf4>
    a7b0:	e1a06000 	mov	r6, r0
    a7b4:	ebfffca7 	bl	9a58 <__malloc_lock>
    a7b8:	e5973008 	ldr	r3, [r7, #8]
    a7bc:	e5935004 	ldr	r5, [r3, #4]
    a7c0:	e2643efe 	rsb	r3, r4, #4064	; 0xfe0
    a7c4:	e3c55003 	bic	r5, r5, #3
    a7c8:	e283300f 	add	r3, r3, #15
    a7cc:	e0833005 	add	r3, r3, r5
    a7d0:	e3c33eff 	bic	r3, r3, #4080	; 0xff0
    a7d4:	e3c3300f 	bic	r3, r3, #15
    a7d8:	e2434a01 	sub	r4, r3, #4096	; 0x1000
    a7dc:	e3540a01 	cmp	r4, #4096	; 0x1000
    a7e0:	ba000006 	blt	a800 <_malloc_trim_r+0x5c>
    a7e4:	e3a01000 	mov	r1, #0
    a7e8:	e1a00006 	mov	r0, r6
    a7ec:	ebfffe00 	bl	9ff4 <_sbrk_r>
    a7f0:	e5973008 	ldr	r3, [r7, #8]
    a7f4:	e0833005 	add	r3, r3, r5
    a7f8:	e1500003 	cmp	r0, r3
    a7fc:	0a000004 	beq	a814 <_malloc_trim_r+0x70>
    a800:	e1a00006 	mov	r0, r6
    a804:	ebfffc94 	bl	9a5c <__malloc_unlock>
    a808:	e3a00000 	mov	r0, #0
    a80c:	e8bd41f0 	pop	{r4, r5, r6, r7, r8, lr}
    a810:	e12fff1e 	bx	lr
    a814:	e1a00006 	mov	r0, r6
    a818:	e2641000 	rsb	r1, r4, #0
    a81c:	ebfffdf4 	bl	9ff4 <_sbrk_r>
    a820:	e3700001 	cmn	r0, #1
    a824:	0a00000c 	beq	a85c <_malloc_trim_r+0xb8>
    a828:	e5973008 	ldr	r3, [r7, #8]
    a82c:	e59f2068 	ldr	r2, [pc, #104]	; a89c <_malloc_trim_r+0xf8>
    a830:	e0455004 	sub	r5, r5, r4
    a834:	e3855001 	orr	r5, r5, #1
    a838:	e5835004 	str	r5, [r3, #4]
    a83c:	e5923000 	ldr	r3, [r2]
    a840:	e1a00006 	mov	r0, r6
    a844:	e0433004 	sub	r3, r3, r4
    a848:	e5823000 	str	r3, [r2]
    a84c:	ebfffc82 	bl	9a5c <__malloc_unlock>
    a850:	e3a00001 	mov	r0, #1
    a854:	e8bd41f0 	pop	{r4, r5, r6, r7, r8, lr}
    a858:	e12fff1e 	bx	lr
    a85c:	e3a01000 	mov	r1, #0
    a860:	e1a00006 	mov	r0, r6
    a864:	ebfffde2 	bl	9ff4 <_sbrk_r>
    a868:	e5972008 	ldr	r2, [r7, #8]
    a86c:	e0403002 	sub	r3, r0, r2
    a870:	e353000f 	cmp	r3, #15
    a874:	daffffe1 	ble	a800 <_malloc_trim_r+0x5c>
    a878:	e3833001 	orr	r3, r3, #1
    a87c:	e5823004 	str	r3, [r2, #4]
    a880:	e59f3018 	ldr	r3, [pc, #24]	; a8a0 <_malloc_trim_r+0xfc>
    a884:	e5933000 	ldr	r3, [r3]
    a888:	e59f100c 	ldr	r1, [pc, #12]	; a89c <_malloc_trim_r+0xf8>
    a88c:	e0400003 	sub	r0, r0, r3
    a890:	e5810000 	str	r0, [r1]
    a894:	eaffffd9 	b	a800 <_malloc_trim_r+0x5c>
    a898:	0000b598 	muleq	r0, r8, r5
    a89c:	0000b9ac 	andeq	fp, r0, ip, lsr #19
    a8a0:	0000b9a0 	andeq	fp, r0, r0, lsr #19

0000a8a4 <_free_r>:
    a8a4:	e92d4070 	push	{r4, r5, r6, lr}
    a8a8:	e2514000 	subs	r4, r1, #0
    a8ac:	0a000031 	beq	a978 <_free_r+0xd4>
    a8b0:	e1a05000 	mov	r5, r0
    a8b4:	ebfffc67 	bl	9a58 <__malloc_lock>
    a8b8:	e5140004 	ldr	r0, [r4, #-4]
    a8bc:	e59f22bc 	ldr	r2, [pc, #700]	; ab80 <_free_r+0x2dc>
    a8c0:	e244c008 	sub	ip, r4, #8
    a8c4:	e5923008 	ldr	r3, [r2, #8]
    a8c8:	e3c01001 	bic	r1, r0, #1
    a8cc:	e08ce001 	add	lr, ip, r1
    a8d0:	e153000e 	cmp	r3, lr
    a8d4:	e59e3004 	ldr	r3, [lr, #4]
    a8d8:	e3c33003 	bic	r3, r3, #3
    a8dc:	0a000065 	beq	aa78 <_free_r+0x1d4>
    a8e0:	e3100001 	tst	r0, #1
    a8e4:	e58e3004 	str	r3, [lr, #4]
    a8e8:	1a000024 	bne	a980 <_free_r+0xdc>
    a8ec:	e5140008 	ldr	r0, [r4, #-8]
    a8f0:	e04cc000 	sub	ip, ip, r0
    a8f4:	e0811000 	add	r1, r1, r0
    a8f8:	e59c0008 	ldr	r0, [ip, #8]
    a8fc:	e2824008 	add	r4, r2, #8
    a900:	e1500004 	cmp	r0, r4
    a904:	0a00004b 	beq	aa38 <_free_r+0x194>
    a908:	e08e6003 	add	r6, lr, r3
    a90c:	e5966004 	ldr	r6, [r6, #4]
    a910:	e3160001 	tst	r6, #1
    a914:	e59c600c 	ldr	r6, [ip, #12]
    a918:	e580600c 	str	r6, [r0, #12]
    a91c:	e5860008 	str	r0, [r6, #8]
    a920:	0a000073 	beq	aaf4 <_free_r+0x250>
    a924:	e3813001 	orr	r3, r1, #1
    a928:	e58c3004 	str	r3, [ip, #4]
    a92c:	e58e1000 	str	r1, [lr]
    a930:	e3510c02 	cmp	r1, #512	; 0x200
    a934:	2a000026 	bcs	a9d4 <_free_r+0x130>
    a938:	e3a0e001 	mov	lr, #1
    a93c:	e5920004 	ldr	r0, [r2, #4]
    a940:	e1a031a1 	lsr	r3, r1, #3
    a944:	e1a012a1 	lsr	r1, r1, #5
    a948:	e2833001 	add	r3, r3, #1
    a94c:	e180111e 	orr	r1, r0, lr, lsl r1
    a950:	e5821004 	str	r1, [r2, #4]
    a954:	e7920183 	ldr	r0, [r2, r3, lsl #3]
    a958:	e0821183 	add	r1, r2, r3, lsl #3
    a95c:	e2411008 	sub	r1, r1, #8
    a960:	e58c100c 	str	r1, [ip, #12]
    a964:	e58c0008 	str	r0, [ip, #8]
    a968:	e782c183 	str	ip, [r2, r3, lsl #3]
    a96c:	e580c00c 	str	ip, [r0, #12]
    a970:	e1a00005 	mov	r0, r5
    a974:	ebfffc38 	bl	9a5c <__malloc_unlock>
    a978:	e8bd4070 	pop	{r4, r5, r6, lr}
    a97c:	e12fff1e 	bx	lr
    a980:	e08e0003 	add	r0, lr, r3
    a984:	e5900004 	ldr	r0, [r0, #4]
    a988:	e3100001 	tst	r0, #1
    a98c:	1a00000b 	bne	a9c0 <_free_r+0x11c>
    a990:	e0811003 	add	r1, r1, r3
    a994:	e2824008 	add	r4, r2, #8
    a998:	e59e3008 	ldr	r3, [lr, #8]
    a99c:	e1530004 	cmp	r3, r4
    a9a0:	0a00005f 	beq	ab24 <_free_r+0x280>
    a9a4:	e59e000c 	ldr	r0, [lr, #12]
    a9a8:	e583000c 	str	r0, [r3, #12]
    a9ac:	e5803008 	str	r3, [r0, #8]
    a9b0:	e3813001 	orr	r3, r1, #1
    a9b4:	e58c3004 	str	r3, [ip, #4]
    a9b8:	e78c1001 	str	r1, [ip, r1]
    a9bc:	eaffffdb 	b	a930 <_free_r+0x8c>
    a9c0:	e3813001 	orr	r3, r1, #1
    a9c4:	e3510c02 	cmp	r1, #512	; 0x200
    a9c8:	e5043004 	str	r3, [r4, #-4]
    a9cc:	e58e1000 	str	r1, [lr]
    a9d0:	3affffd8 	bcc	a938 <_free_r+0x94>
    a9d4:	e3510c0a 	cmp	r1, #2560	; 0xa00
    a9d8:	e1a034a1 	lsr	r3, r1, #9
    a9dc:	2a00003b 	bcs	aad0 <_free_r+0x22c>
    a9e0:	e1a03321 	lsr	r3, r1, #6
    a9e4:	e2830039 	add	r0, r3, #57	; 0x39
    a9e8:	e283e038 	add	lr, r3, #56	; 0x38
    a9ec:	e1a00180 	lsl	r0, r0, #3
    a9f0:	e7923000 	ldr	r3, [r2, r0]
    a9f4:	e0820000 	add	r0, r2, r0
    a9f8:	e2400008 	sub	r0, r0, #8
    a9fc:	e1500003 	cmp	r0, r3
    aa00:	0a000041 	beq	ab0c <_free_r+0x268>
    aa04:	e5932004 	ldr	r2, [r3, #4]
    aa08:	e3c22003 	bic	r2, r2, #3
    aa0c:	e1520001 	cmp	r2, r1
    aa10:	9a000002 	bls	aa20 <_free_r+0x17c>
    aa14:	e5933008 	ldr	r3, [r3, #8]
    aa18:	e1500003 	cmp	r0, r3
    aa1c:	1afffff8 	bne	aa04 <_free_r+0x160>
    aa20:	e593000c 	ldr	r0, [r3, #12]
    aa24:	e58c000c 	str	r0, [ip, #12]
    aa28:	e58c3008 	str	r3, [ip, #8]
    aa2c:	e580c008 	str	ip, [r0, #8]
    aa30:	e583c00c 	str	ip, [r3, #12]
    aa34:	eaffffcd 	b	a970 <_free_r+0xcc>
    aa38:	e08e2003 	add	r2, lr, r3
    aa3c:	e5922004 	ldr	r2, [r2, #4]
    aa40:	e3120001 	tst	r2, #1
    aa44:	13813001 	orrne	r3, r1, #1
    aa48:	158c3004 	strne	r3, [ip, #4]
    aa4c:	158e1000 	strne	r1, [lr]
    aa50:	1affffc6 	bne	a970 <_free_r+0xcc>
    aa54:	e0833001 	add	r3, r3, r1
    aa58:	e28e1008 	add	r1, lr, #8
    aa5c:	e8910006 	ldm	r1, {r1, r2}
    aa60:	e581200c 	str	r2, [r1, #12]
    aa64:	e5821008 	str	r1, [r2, #8]
    aa68:	e3832001 	orr	r2, r3, #1
    aa6c:	e58c2004 	str	r2, [ip, #4]
    aa70:	e78c3003 	str	r3, [ip, r3]
    aa74:	eaffffbd 	b	a970 <_free_r+0xcc>
    aa78:	e3100001 	tst	r0, #1
    aa7c:	e0813003 	add	r3, r1, r3
    aa80:	1a000006 	bne	aaa0 <_free_r+0x1fc>
    aa84:	e5141008 	ldr	r1, [r4, #-8]
    aa88:	e04cc001 	sub	ip, ip, r1
    aa8c:	e28c0008 	add	r0, ip, #8
    aa90:	e0833001 	add	r3, r3, r1
    aa94:	e8900003 	ldm	r0, {r0, r1}
    aa98:	e580100c 	str	r1, [r0, #12]
    aa9c:	e5810008 	str	r0, [r1, #8]
    aaa0:	e3831001 	orr	r1, r3, #1
    aaa4:	e58c1004 	str	r1, [ip, #4]
    aaa8:	e59f10d4 	ldr	r1, [pc, #212]	; ab84 <_free_r+0x2e0>
    aaac:	e582c008 	str	ip, [r2, #8]
    aab0:	e5912000 	ldr	r2, [r1]
    aab4:	e1520003 	cmp	r2, r3
    aab8:	8affffac 	bhi	a970 <_free_r+0xcc>
    aabc:	e59f30c4 	ldr	r3, [pc, #196]	; ab88 <_free_r+0x2e4>
    aac0:	e1a00005 	mov	r0, r5
    aac4:	e5931000 	ldr	r1, [r3]
    aac8:	ebffff35 	bl	a7a4 <_malloc_trim_r>
    aacc:	eaffffa7 	b	a970 <_free_r+0xcc>
    aad0:	e3530014 	cmp	r3, #20
    aad4:	9a000008 	bls	aafc <_free_r+0x258>
    aad8:	e3530054 	cmp	r3, #84	; 0x54
    aadc:	8a000017 	bhi	ab40 <_free_r+0x29c>
    aae0:	e1a03621 	lsr	r3, r1, #12
    aae4:	e283006f 	add	r0, r3, #111	; 0x6f
    aae8:	e283e06e 	add	lr, r3, #110	; 0x6e
    aaec:	e1a00180 	lsl	r0, r0, #3
    aaf0:	eaffffbe 	b	a9f0 <_free_r+0x14c>
    aaf4:	e0811003 	add	r1, r1, r3
    aaf8:	eaffffa6 	b	a998 <_free_r+0xf4>
    aafc:	e283005c 	add	r0, r3, #92	; 0x5c
    ab00:	e283e05b 	add	lr, r3, #91	; 0x5b
    ab04:	e1a00180 	lsl	r0, r0, #3
    ab08:	eaffffb8 	b	a9f0 <_free_r+0x14c>
    ab0c:	e3a04001 	mov	r4, #1
    ab10:	e5921004 	ldr	r1, [r2, #4]
    ab14:	e1a0e14e 	asr	lr, lr, #2
    ab18:	e181ee14 	orr	lr, r1, r4, lsl lr
    ab1c:	e582e004 	str	lr, [r2, #4]
    ab20:	eaffffbf 	b	aa24 <_free_r+0x180>
    ab24:	e3813001 	orr	r3, r1, #1
    ab28:	e582c014 	str	ip, [r2, #20]
    ab2c:	e582c010 	str	ip, [r2, #16]
    ab30:	e98c0018 	stmib	ip, {r3, r4}
    ab34:	e58c400c 	str	r4, [ip, #12]
    ab38:	e78c1001 	str	r1, [ip, r1]
    ab3c:	eaffff8b 	b	a970 <_free_r+0xcc>
    ab40:	e3530f55 	cmp	r3, #340	; 0x154
    ab44:	8a000004 	bhi	ab5c <_free_r+0x2b8>
    ab48:	e1a037a1 	lsr	r3, r1, #15
    ab4c:	e2830078 	add	r0, r3, #120	; 0x78
    ab50:	e283e077 	add	lr, r3, #119	; 0x77
    ab54:	e1a00180 	lsl	r0, r0, #3
    ab58:	eaffffa4 	b	a9f0 <_free_r+0x14c>
    ab5c:	e59f0028 	ldr	r0, [pc, #40]	; ab8c <_free_r+0x2e8>
    ab60:	e1530000 	cmp	r3, r0
    ab64:	91a03921 	lsrls	r3, r1, #18
    ab68:	9283007d 	addls	r0, r3, #125	; 0x7d
    ab6c:	83a00ffe 	movhi	r0, #1016	; 0x3f8
    ab70:	83a0e07e 	movhi	lr, #126	; 0x7e
    ab74:	9283e07c 	addls	lr, r3, #124	; 0x7c
    ab78:	91a00180 	lslls	r0, r0, #3
    ab7c:	eaffff9b 	b	a9f0 <_free_r+0x14c>
    ab80:	0000b598 	muleq	r0, r8, r5
    ab84:	0000b9a4 	andeq	fp, r0, r4, lsr #19
    ab88:	0000b9a8 	andeq	fp, r0, r8, lsr #19
    ab8c:	00000554 	andeq	r0, r0, r4, asr r5

0000ab90 <_lseek_r>:
    ab90:	e92d4070 	push	{r4, r5, r6, lr}
    ab94:	e1a0e001 	mov	lr, r1
    ab98:	e1a01002 	mov	r1, r2
    ab9c:	e3a02000 	mov	r2, #0
    aba0:	e59f502c 	ldr	r5, [pc, #44]	; abd4 <_lseek_r+0x44>
    aba4:	e1a04000 	mov	r4, r0
    aba8:	e5852000 	str	r2, [r5]
    abac:	e1a0000e 	mov	r0, lr
    abb0:	e1a02003 	mov	r2, r3
    abb4:	ebfff56f 	bl	8178 <_lseek>
    abb8:	e3700001 	cmn	r0, #1
    abbc:	1a000002 	bne	abcc <_lseek_r+0x3c>
    abc0:	e5953000 	ldr	r3, [r5]
    abc4:	e3530000 	cmp	r3, #0
    abc8:	15843000 	strne	r3, [r4]
    abcc:	e8bd4070 	pop	{r4, r5, r6, lr}
    abd0:	e12fff1e 	bx	lr
    abd4:	0000b9dc 	ldrdeq	fp, [r0], -ip

0000abd8 <__smakebuf_r>:
    abd8:	e92d41f0 	push	{r4, r5, r6, r7, r8, lr}
    abdc:	e1d130bc 	ldrh	r3, [r1, #12]
    abe0:	e3130002 	tst	r3, #2
    abe4:	e1a04001 	mov	r4, r1
    abe8:	e24dd058 	sub	sp, sp, #88	; 0x58
    abec:	0a000007 	beq	ac10 <__smakebuf_r+0x38>
    abf0:	e3a02001 	mov	r2, #1
    abf4:	e2813043 	add	r3, r1, #67	; 0x43
    abf8:	e5813000 	str	r3, [r1]
    abfc:	e5813010 	str	r3, [r1, #16]
    ac00:	e5812014 	str	r2, [r1, #20]
    ac04:	e28dd058 	add	sp, sp, #88	; 0x58
    ac08:	e8bd41f0 	pop	{r4, r5, r6, r7, r8, lr}
    ac0c:	e12fff1e 	bx	lr
    ac10:	e1d110fe 	ldrsh	r1, [r1, #14]
    ac14:	e3510000 	cmp	r1, #0
    ac18:	e1a06000 	mov	r6, r0
    ac1c:	ba00001f 	blt	aca0 <__smakebuf_r+0xc8>
    ac20:	e1a0200d 	mov	r2, sp
    ac24:	eb0000d4 	bl	af7c <_fstat_r>
    ac28:	e3500000 	cmp	r0, #0
    ac2c:	ba00001a 	blt	ac9c <__smakebuf_r+0xc4>
    ac30:	e3a08b01 	mov	r8, #1024	; 0x400
    ac34:	e3a07b02 	mov	r7, #2048	; 0x800
    ac38:	e59d5004 	ldr	r5, [sp, #4]
    ac3c:	e2055a0f 	and	r5, r5, #61440	; 0xf000
    ac40:	e2453a02 	sub	r3, r5, #8192	; 0x2000
    ac44:	e2735000 	rsbs	r5, r3, #0
    ac48:	e0a55003 	adc	r5, r5, r3
    ac4c:	e1a01008 	mov	r1, r8
    ac50:	e1a00006 	mov	r0, r6
    ac54:	ebfff862 	bl	8de4 <_malloc_r>
    ac58:	e3500000 	cmp	r0, #0
    ac5c:	0a000016 	beq	acbc <__smakebuf_r+0xe4>
    ac60:	e1d430fc 	ldrsh	r3, [r4, #12]
    ac64:	e59f20ac 	ldr	r2, [pc, #172]	; ad18 <__smakebuf_r+0x140>
    ac68:	e3833080 	orr	r3, r3, #128	; 0x80
    ac6c:	e3550000 	cmp	r5, #0
    ac70:	e586203c 	str	r2, [r6, #60]	; 0x3c
    ac74:	e5848014 	str	r8, [r4, #20]
    ac78:	e1c430bc 	strh	r3, [r4, #12]
    ac7c:	e5840000 	str	r0, [r4]
    ac80:	e5840010 	str	r0, [r4, #16]
    ac84:	1a000018 	bne	acec <__smakebuf_r+0x114>
    ac88:	e1833007 	orr	r3, r3, r7
    ac8c:	e1c430bc 	strh	r3, [r4, #12]
    ac90:	e28dd058 	add	sp, sp, #88	; 0x58
    ac94:	e8bd41f0 	pop	{r4, r5, r6, r7, r8, lr}
    ac98:	e12fff1e 	bx	lr
    ac9c:	e1d430bc 	ldrh	r3, [r4, #12]
    aca0:	e2135080 	ands	r5, r3, #128	; 0x80
    aca4:	03a08b01 	moveq	r8, #1024	; 0x400
    aca8:	01a07005 	moveq	r7, r5
    acac:	13a05000 	movne	r5, #0
    acb0:	13a08040 	movne	r8, #64	; 0x40
    acb4:	11a07005 	movne	r7, r5
    acb8:	eaffffe3 	b	ac4c <__smakebuf_r+0x74>
    acbc:	e1d430fc 	ldrsh	r3, [r4, #12]
    acc0:	e3130c02 	tst	r3, #512	; 0x200
    acc4:	1affffce 	bne	ac04 <__smakebuf_r+0x2c>
    acc8:	e3a01001 	mov	r1, #1
    accc:	e3c33003 	bic	r3, r3, #3
    acd0:	e2842043 	add	r2, r4, #67	; 0x43
    acd4:	e3833002 	orr	r3, r3, #2
    acd8:	e1c430bc 	strh	r3, [r4, #12]
    acdc:	e5842000 	str	r2, [r4]
    ace0:	e5842010 	str	r2, [r4, #16]
    ace4:	e5841014 	str	r1, [r4, #20]
    ace8:	eaffffc5 	b	ac04 <__smakebuf_r+0x2c>
    acec:	e1a00006 	mov	r0, r6
    acf0:	e1d410fe 	ldrsh	r1, [r4, #14]
    acf4:	eb0000b0 	bl	afbc <_isatty_r>
    acf8:	e3500000 	cmp	r0, #0
    acfc:	11d430bc 	ldrhne	r3, [r4, #12]
    ad00:	13c33003 	bicne	r3, r3, #3
    ad04:	13833001 	orrne	r3, r3, #1
    ad08:	11a03803 	lslne	r3, r3, #16
    ad0c:	01d430fc 	ldrsheq	r3, [r4, #12]
    ad10:	11a03843 	asrne	r3, r3, #16
    ad14:	eaffffdb 	b	ac88 <__smakebuf_r+0xb0>
    ad18:	000084e0 	andeq	r8, r0, r0, ror #9

0000ad1c <__swhatbuf_r>:
    ad1c:	e92d4070 	push	{r4, r5, r6, lr}
    ad20:	e1a04001 	mov	r4, r1
    ad24:	e1d110fe 	ldrsh	r1, [r1, #14]
    ad28:	e3510000 	cmp	r1, #0
    ad2c:	e1a05002 	mov	r5, r2
    ad30:	e1a06003 	mov	r6, r3
    ad34:	e24dd058 	sub	sp, sp, #88	; 0x58
    ad38:	ba00000f 	blt	ad7c <__swhatbuf_r+0x60>
    ad3c:	e1a0200d 	mov	r2, sp
    ad40:	eb00008d 	bl	af7c <_fstat_r>
    ad44:	e3500000 	cmp	r0, #0
    ad48:	ba00000b 	blt	ad7c <__swhatbuf_r+0x60>
    ad4c:	e3a02b01 	mov	r2, #1024	; 0x400
    ad50:	e3a00b02 	mov	r0, #2048	; 0x800
    ad54:	e59d3004 	ldr	r3, [sp, #4]
    ad58:	e2033a0f 	and	r3, r3, #61440	; 0xf000
    ad5c:	e2431a02 	sub	r1, r3, #8192	; 0x2000
    ad60:	e2713000 	rsbs	r3, r1, #0
    ad64:	e0a33001 	adc	r3, r3, r1
    ad68:	e5863000 	str	r3, [r6]
    ad6c:	e5852000 	str	r2, [r5]
    ad70:	e28dd058 	add	sp, sp, #88	; 0x58
    ad74:	e8bd4070 	pop	{r4, r5, r6, lr}
    ad78:	e12fff1e 	bx	lr
    ad7c:	e3a03000 	mov	r3, #0
    ad80:	e1d410fc 	ldrsh	r1, [r4, #12]
    ad84:	e2110080 	ands	r0, r1, #128	; 0x80
    ad88:	e5863000 	str	r3, [r6]
    ad8c:	0a000005 	beq	ada8 <__swhatbuf_r+0x8c>
    ad90:	e3a02040 	mov	r2, #64	; 0x40
    ad94:	e1a00003 	mov	r0, r3
    ad98:	e5852000 	str	r2, [r5]
    ad9c:	e28dd058 	add	sp, sp, #88	; 0x58
    ada0:	e8bd4070 	pop	{r4, r5, r6, lr}
    ada4:	e12fff1e 	bx	lr
    ada8:	e3a03b01 	mov	r3, #1024	; 0x400
    adac:	e5853000 	str	r3, [r5]
    adb0:	e28dd058 	add	sp, sp, #88	; 0x58
    adb4:	e8bd4070 	pop	{r4, r5, r6, lr}
    adb8:	e12fff1e 	bx	lr

0000adbc <_read_r>:
    adbc:	e92d4070 	push	{r4, r5, r6, lr}
    adc0:	e1a0e001 	mov	lr, r1
    adc4:	e1a01002 	mov	r1, r2
    adc8:	e3a02000 	mov	r2, #0
    adcc:	e59f502c 	ldr	r5, [pc, #44]	; ae00 <_read_r+0x44>
    add0:	e1a04000 	mov	r4, r0
    add4:	e5852000 	str	r2, [r5]
    add8:	e1a0000e 	mov	r0, lr
    addc:	e1a02003 	mov	r2, r3
    ade0:	ebfff52d 	bl	829c <_read>
    ade4:	e3700001 	cmn	r0, #1
    ade8:	1a000002 	bne	adf8 <_read_r+0x3c>
    adec:	e5953000 	ldr	r3, [r5]
    adf0:	e3530000 	cmp	r3, #0
    adf4:	15843000 	strne	r3, [r4]
    adf8:	e8bd4070 	pop	{r4, r5, r6, lr}
    adfc:	e12fff1e 	bx	lr
    ae00:	0000b9dc 	ldrdeq	fp, [r0], -ip

0000ae04 <cleanup_glue>:
    ae04:	e92d41f0 	push	{r4, r5, r6, r7, r8, lr}
    ae08:	e5916000 	ldr	r6, [r1]
    ae0c:	e3560000 	cmp	r6, #0
    ae10:	e1a04001 	mov	r4, r1
    ae14:	e1a05000 	mov	r5, r0
    ae18:	0a000011 	beq	ae64 <cleanup_glue+0x60>
    ae1c:	e5967000 	ldr	r7, [r6]
    ae20:	e3570000 	cmp	r7, #0
    ae24:	0a00000b 	beq	ae58 <cleanup_glue+0x54>
    ae28:	e5978000 	ldr	r8, [r7]
    ae2c:	e3580000 	cmp	r8, #0
    ae30:	0a000005 	beq	ae4c <cleanup_glue+0x48>
    ae34:	e5981000 	ldr	r1, [r8]
    ae38:	e3510000 	cmp	r1, #0
    ae3c:	1bfffff0 	blne	ae04 <cleanup_glue>
    ae40:	e1a01008 	mov	r1, r8
    ae44:	e1a00005 	mov	r0, r5
    ae48:	ebfffe95 	bl	a8a4 <_free_r>
    ae4c:	e1a01007 	mov	r1, r7
    ae50:	e1a00005 	mov	r0, r5
    ae54:	ebfffe92 	bl	a8a4 <_free_r>
    ae58:	e1a01006 	mov	r1, r6
    ae5c:	e1a00005 	mov	r0, r5
    ae60:	ebfffe8f 	bl	a8a4 <_free_r>
    ae64:	e1a01004 	mov	r1, r4
    ae68:	e1a00005 	mov	r0, r5
    ae6c:	ebfffe8c 	bl	a8a4 <_free_r>
    ae70:	e8bd41f0 	pop	{r4, r5, r6, r7, r8, lr}
    ae74:	e12fff1e 	bx	lr

0000ae78 <_reclaim_reent>:
    ae78:	e59f30f8 	ldr	r3, [pc, #248]	; af78 <_reclaim_reent+0x100>
    ae7c:	e5933000 	ldr	r3, [r3]
    ae80:	e1530000 	cmp	r3, r0
    ae84:	012fff1e 	bxeq	lr
    ae88:	e590104c 	ldr	r1, [r0, #76]	; 0x4c
    ae8c:	e3510000 	cmp	r1, #0
    ae90:	e92d4070 	push	{r4, r5, r6, lr}
    ae94:	e1a05000 	mov	r5, r0
    ae98:	0a00000f 	beq	aedc <_reclaim_reent+0x64>
    ae9c:	e3a06000 	mov	r6, #0
    aea0:	e7914006 	ldr	r4, [r1, r6]
    aea4:	e3540000 	cmp	r4, #0
    aea8:	0a000006 	beq	aec8 <_reclaim_reent+0x50>
    aeac:	e1a01004 	mov	r1, r4
    aeb0:	e5944000 	ldr	r4, [r4]
    aeb4:	e1a00005 	mov	r0, r5
    aeb8:	ebfffe79 	bl	a8a4 <_free_r>
    aebc:	e3540000 	cmp	r4, #0
    aec0:	1afffff9 	bne	aeac <_reclaim_reent+0x34>
    aec4:	e595104c 	ldr	r1, [r5, #76]	; 0x4c
    aec8:	e2866004 	add	r6, r6, #4
    aecc:	e3560080 	cmp	r6, #128	; 0x80
    aed0:	1afffff2 	bne	aea0 <_reclaim_reent+0x28>
    aed4:	e1a00005 	mov	r0, r5
    aed8:	ebfffe71 	bl	a8a4 <_free_r>
    aedc:	e5951040 	ldr	r1, [r5, #64]	; 0x40
    aee0:	e3510000 	cmp	r1, #0
    aee4:	11a00005 	movne	r0, r5
    aee8:	1bfffe6d 	blne	a8a4 <_free_r>
    aeec:	e5954148 	ldr	r4, [r5, #328]	; 0x148
    aef0:	e3540000 	cmp	r4, #0
    aef4:	0a000008 	beq	af1c <_reclaim_reent+0xa4>
    aef8:	e2856f53 	add	r6, r5, #332	; 0x14c
    aefc:	e1540006 	cmp	r4, r6
    af00:	0a000005 	beq	af1c <_reclaim_reent+0xa4>
    af04:	e1a01004 	mov	r1, r4
    af08:	e5944000 	ldr	r4, [r4]
    af0c:	e1a00005 	mov	r0, r5
    af10:	ebfffe63 	bl	a8a4 <_free_r>
    af14:	e1560004 	cmp	r6, r4
    af18:	1afffff9 	bne	af04 <_reclaim_reent+0x8c>
    af1c:	e5951054 	ldr	r1, [r5, #84]	; 0x54
    af20:	e3510000 	cmp	r1, #0
    af24:	11a00005 	movne	r0, r5
    af28:	1bfffe5d 	blne	a8a4 <_free_r>
    af2c:	e5953038 	ldr	r3, [r5, #56]	; 0x38
    af30:	e3530000 	cmp	r3, #0
    af34:	0a00000d 	beq	af70 <_reclaim_reent+0xf8>
    af38:	e1a00005 	mov	r0, r5
    af3c:	e595303c 	ldr	r3, [r5, #60]	; 0x3c
    af40:	e1a0e00f 	mov	lr, pc
    af44:	e12fff13 	bx	r3
    af48:	e59542e0 	ldr	r4, [r5, #736]	; 0x2e0
    af4c:	e3540000 	cmp	r4, #0
    af50:	0a000006 	beq	af70 <_reclaim_reent+0xf8>
    af54:	e5941000 	ldr	r1, [r4]
    af58:	e3510000 	cmp	r1, #0
    af5c:	11a00005 	movne	r0, r5
    af60:	1bffffa7 	blne	ae04 <cleanup_glue>
    af64:	e1a01004 	mov	r1, r4
    af68:	e1a00005 	mov	r0, r5
    af6c:	ebfffe4c 	bl	a8a4 <_free_r>
    af70:	e8bd4070 	pop	{r4, r5, r6, lr}
    af74:	e12fff1e 	bx	lr
    af78:	0000b168 	andeq	fp, r0, r8, ror #2

0000af7c <_fstat_r>:
    af7c:	e3a0c000 	mov	ip, #0
    af80:	e92d4070 	push	{r4, r5, r6, lr}
    af84:	e59f502c 	ldr	r5, [pc, #44]	; afb8 <_fstat_r+0x3c>
    af88:	e1a04000 	mov	r4, r0
    af8c:	e1a00001 	mov	r0, r1
    af90:	e1a01002 	mov	r1, r2
    af94:	e585c000 	str	ip, [r5]
    af98:	ebfff469 	bl	8144 <_fstat>
    af9c:	e3700001 	cmn	r0, #1
    afa0:	1a000002 	bne	afb0 <_fstat_r+0x34>
    afa4:	e5953000 	ldr	r3, [r5]
    afa8:	e3530000 	cmp	r3, #0
    afac:	15843000 	strne	r3, [r4]
    afb0:	e8bd4070 	pop	{r4, r5, r6, lr}
    afb4:	e12fff1e 	bx	lr
    afb8:	0000b9dc 	ldrdeq	fp, [r0], -ip

0000afbc <_isatty_r>:
    afbc:	e3a02000 	mov	r2, #0
    afc0:	e92d4070 	push	{r4, r5, r6, lr}
    afc4:	e59f5028 	ldr	r5, [pc, #40]	; aff4 <_isatty_r+0x38>
    afc8:	e1a04000 	mov	r4, r0
    afcc:	e1a00001 	mov	r0, r1
    afd0:	e5852000 	str	r2, [r5]
    afd4:	ebfff4cf 	bl	8318 <_isatty>
    afd8:	e3700001 	cmn	r0, #1
    afdc:	1a000002 	bne	afec <_isatty_r+0x30>
    afe0:	e5953000 	ldr	r3, [r5]
    afe4:	e3530000 	cmp	r3, #0
    afe8:	15843000 	strne	r3, [r4]
    afec:	e8bd4070 	pop	{r4, r5, r6, lr}
    aff0:	e12fff1e 	bx	lr
    aff4:	0000b9dc 	ldrdeq	fp, [r0], -ip

0000aff8 <__divsi3>:
    aff8:	e3510000 	cmp	r1, #0
    affc:	0a000043 	beq	b110 <.divsi3_skip_div0_test+0x110>

0000b000 <.divsi3_skip_div0_test>:
    b000:	e020c001 	eor	ip, r0, r1
    b004:	42611000 	rsbmi	r1, r1, #0
    b008:	e2512001 	subs	r2, r1, #1
    b00c:	0a000027 	beq	b0b0 <.divsi3_skip_div0_test+0xb0>
    b010:	e1b03000 	movs	r3, r0
    b014:	42603000 	rsbmi	r3, r0, #0
    b018:	e1530001 	cmp	r3, r1
    b01c:	9a000026 	bls	b0bc <.divsi3_skip_div0_test+0xbc>
    b020:	e1110002 	tst	r1, r2
    b024:	0a000028 	beq	b0cc <.divsi3_skip_div0_test+0xcc>
    b028:	e311020e 	tst	r1, #-536870912	; 0xe0000000
    b02c:	01a01181 	lsleq	r1, r1, #3
    b030:	03a02008 	moveq	r2, #8
    b034:	13a02001 	movne	r2, #1
    b038:	e3510201 	cmp	r1, #268435456	; 0x10000000
    b03c:	31510003 	cmpcc	r1, r3
    b040:	31a01201 	lslcc	r1, r1, #4
    b044:	31a02202 	lslcc	r2, r2, #4
    b048:	3afffffa 	bcc	b038 <.divsi3_skip_div0_test+0x38>
    b04c:	e3510102 	cmp	r1, #-2147483648	; 0x80000000
    b050:	31510003 	cmpcc	r1, r3
    b054:	31a01081 	lslcc	r1, r1, #1
    b058:	31a02082 	lslcc	r2, r2, #1
    b05c:	3afffffa 	bcc	b04c <.divsi3_skip_div0_test+0x4c>
    b060:	e3a00000 	mov	r0, #0
    b064:	e1530001 	cmp	r3, r1
    b068:	20433001 	subcs	r3, r3, r1
    b06c:	21800002 	orrcs	r0, r0, r2
    b070:	e15300a1 	cmp	r3, r1, lsr #1
    b074:	204330a1 	subcs	r3, r3, r1, lsr #1
    b078:	218000a2 	orrcs	r0, r0, r2, lsr #1
    b07c:	e1530121 	cmp	r3, r1, lsr #2
    b080:	20433121 	subcs	r3, r3, r1, lsr #2
    b084:	21800122 	orrcs	r0, r0, r2, lsr #2
    b088:	e15301a1 	cmp	r3, r1, lsr #3
    b08c:	204331a1 	subcs	r3, r3, r1, lsr #3
    b090:	218001a2 	orrcs	r0, r0, r2, lsr #3
    b094:	e3530000 	cmp	r3, #0
    b098:	11b02222 	lsrsne	r2, r2, #4
    b09c:	11a01221 	lsrne	r1, r1, #4
    b0a0:	1affffef 	bne	b064 <.divsi3_skip_div0_test+0x64>
    b0a4:	e35c0000 	cmp	ip, #0
    b0a8:	42600000 	rsbmi	r0, r0, #0
    b0ac:	e12fff1e 	bx	lr
    b0b0:	e13c0000 	teq	ip, r0
    b0b4:	42600000 	rsbmi	r0, r0, #0
    b0b8:	e12fff1e 	bx	lr
    b0bc:	33a00000 	movcc	r0, #0
    b0c0:	01a00fcc 	asreq	r0, ip, #31
    b0c4:	03800001 	orreq	r0, r0, #1
    b0c8:	e12fff1e 	bx	lr
    b0cc:	e3510801 	cmp	r1, #65536	; 0x10000
    b0d0:	21a01821 	lsrcs	r1, r1, #16
    b0d4:	23a02010 	movcs	r2, #16
    b0d8:	33a02000 	movcc	r2, #0
    b0dc:	e3510c01 	cmp	r1, #256	; 0x100
    b0e0:	21a01421 	lsrcs	r1, r1, #8
    b0e4:	22822008 	addcs	r2, r2, #8
    b0e8:	e3510010 	cmp	r1, #16
    b0ec:	21a01221 	lsrcs	r1, r1, #4
    b0f0:	22822004 	addcs	r2, r2, #4
    b0f4:	e3510004 	cmp	r1, #4
    b0f8:	82822003 	addhi	r2, r2, #3
    b0fc:	908220a1 	addls	r2, r2, r1, lsr #1
    b100:	e35c0000 	cmp	ip, #0
    b104:	e1a00233 	lsr	r0, r3, r2
    b108:	42600000 	rsbmi	r0, r0, #0
    b10c:	e12fff1e 	bx	lr
    b110:	e3500000 	cmp	r0, #0
    b114:	c3e00102 	mvngt	r0, #-2147483648	; 0x80000000
    b118:	b3a00102 	movlt	r0, #-2147483648	; 0x80000000
    b11c:	ea000007 	b	b140 <__aeabi_idiv0>

0000b120 <__aeabi_idivmod>:
    b120:	e3510000 	cmp	r1, #0
    b124:	0afffff9 	beq	b110 <.divsi3_skip_div0_test+0x110>
    b128:	e92d4003 	push	{r0, r1, lr}
    b12c:	ebffffb3 	bl	b000 <.divsi3_skip_div0_test>
    b130:	e8bd4006 	pop	{r1, r2, lr}
    b134:	e0030092 	mul	r3, r2, r0
    b138:	e0411003 	sub	r1, r1, r3
    b13c:	e12fff1e 	bx	lr

0000b140 <__aeabi_idiv0>:
    b140:	e12fff1e 	bx	lr
